ARM GAS  /tmp/ccYKn5UJ.s 			page 1


   1              		.cpu cortex-m4
   2              		.eabi_attribute 27, 1
   3              		.eabi_attribute 28, 1
   4              		.eabi_attribute 20, 1
   5              		.eabi_attribute 21, 1
   6              		.eabi_attribute 23, 3
   7              		.eabi_attribute 24, 1
   8              		.eabi_attribute 25, 1
   9              		.eabi_attribute 26, 1
  10              		.eabi_attribute 30, 1
  11              		.eabi_attribute 34, 1
  12              		.eabi_attribute 18, 4
  13              		.file	"main.c"
  14              		.text
  15              	.Ltext0:
  16              		.cfi_sections	.debug_frame
  17              		.section	.text.delay_ms,"ax",%progbits
  18              		.align	1
  19              		.global	delay_ms
  20              		.arch armv7e-m
  21              		.syntax unified
  22              		.thumb
  23              		.thumb_func
  24              		.fpu fpv4-sp-d16
  26              	delay_ms:
  27              	.LVL0:
  28              	.LFB130:
  29              		.file 1 "Src/main.c"
   1:Src/main.c    **** #include "main.h"
   2:Src/main.c    **** 
   3:Src/main.c    **** #define LED_GREEN_ON() GPIO_ResetBits(GPIOB, GPIO_Pin_9)
   4:Src/main.c    **** #define LED_GREEN_OFF() GPIO_SetBits(GPIOB, GPIO_Pin_9)
   5:Src/main.c    **** #define LED_GREEN_TOGGLE() GPIO_ToggleBits(GPIOB, GPIO_Pin_9)
   6:Src/main.c    **** 
   7:Src/main.c    **** #define LED_RED_ON() GPIO_ResetBits(GPIOB, GPIO_Pin_8)
   8:Src/main.c    **** #define LED_RED_OFF() GPIO_SetBits(GPIOB, GPIO_Pin_8)
   9:Src/main.c    **** #define LED_RED_TOGGLE() GPIO_ToggleBits(GPIOB, GPIO_Pin_8)
  10:Src/main.c    **** 
  11:Src/main.c    **** void delay_ms(volatile u16 nms) {
  30              		.loc 1 11 33 view -0
  31              		.cfi_startproc
  32              		@ args = 0, pretend = 0, frame = 8
  33              		@ frame_needed = 0, uses_anonymous_args = 0
  34              		@ link register save eliminated.
  35              		.loc 1 11 33 is_stmt 0 view .LVU1
  36 0000 82B0     		sub	sp, sp, #8
  37              	.LCFI0:
  38              		.cfi_def_cfa_offset 8
  39 0002 ADF80600 		strh	r0, [sp, #6]	@ movhi
  12:Src/main.c    ****     u16 i, j = 42000;
  40              		.loc 1 12 5 is_stmt 1 view .LVU2
  41              	.LVL1:
  13:Src/main.c    ****     for (i = 0; i < nms; i++) {
  42              		.loc 1 13 5 view .LVU3
  43              		.loc 1 13 12 is_stmt 0 view .LVU4
  44 0006 0021     		movs	r1, #0
  45              		.loc 1 13 5 view .LVU5
ARM GAS  /tmp/ccYKn5UJ.s 			page 2


  46 0008 01E0     		b	.L2
  47              	.LVL2:
  48              	.L7:
  49              		.loc 1 13 26 is_stmt 1 discriminator 2 view .LVU6
  50              		.loc 1 13 27 is_stmt 0 discriminator 2 view .LVU7
  51 000a 0131     		adds	r1, r1, #1
  52              	.LVL3:
  53              		.loc 1 13 27 discriminator 2 view .LVU8
  54 000c 89B2     		uxth	r1, r1
  55              	.LVL4:
  56              	.L2:
  57              		.loc 1 13 17 is_stmt 1 discriminator 1 view .LVU9
  58              		.loc 1 13 19 is_stmt 0 discriminator 1 view .LVU10
  59 000e BDF80630 		ldrh	r3, [sp, #6]
  60 0012 9BB2     		uxth	r3, r3
  61              		.loc 1 13 5 discriminator 1 view .LVU11
  62 0014 8B42     		cmp	r3, r1
  63 0016 07D9     		bls	.L6
  14:Src/main.c    ****         j = 42000;
  64              		.loc 1 14 11 view .LVU12
  65 0018 4AF21043 		movw	r3, #42000
  66              	.L3:
  67              	.LVL5:
  15:Src/main.c    ****         while (j--)
  16:Src/main.c    ****             ;
  68              		.loc 1 16 13 is_stmt 1 discriminator 1 view .LVU13
  15:Src/main.c    ****         while (j--)
  69              		.loc 1 15 15 discriminator 1 view .LVU14
  70 001c 1A46     		mov	r2, r3
  15:Src/main.c    ****         while (j--)
  71              		.loc 1 15 17 is_stmt 0 discriminator 1 view .LVU15
  72 001e 013B     		subs	r3, r3, #1
  73              	.LVL6:
  15:Src/main.c    ****         while (j--)
  74              		.loc 1 15 17 discriminator 1 view .LVU16
  75 0020 9BB2     		uxth	r3, r3
  76              	.LVL7:
  15:Src/main.c    ****         while (j--)
  77              		.loc 1 15 15 discriminator 1 view .LVU17
  78 0022 002A     		cmp	r2, #0
  79 0024 FAD1     		bne	.L3
  80 0026 F0E7     		b	.L7
  81              	.LVL8:
  82              	.L6:
  17:Src/main.c    ****     }
  18:Src/main.c    **** }
  83              		.loc 1 18 1 view .LVU18
  84 0028 02B0     		add	sp, sp, #8
  85              	.LCFI1:
  86              		.cfi_def_cfa_offset 0
  87              		@ sp needed
  88 002a 7047     		bx	lr
  89              		.cfi_endproc
  90              	.LFE130:
  92              		.section	.text.LedInit,"ax",%progbits
  93              		.align	1
  94              		.global	LedInit
ARM GAS  /tmp/ccYKn5UJ.s 			page 3


  95              		.syntax unified
  96              		.thumb
  97              		.thumb_func
  98              		.fpu fpv4-sp-d16
 100              	LedInit:
 101              	.LFB131:
  19:Src/main.c    **** 
  20:Src/main.c    **** void LedInit(void)
  21:Src/main.c    **** {
 102              		.loc 1 21 1 is_stmt 1 view -0
 103              		.cfi_startproc
 104              		@ args = 0, pretend = 0, frame = 8
 105              		@ frame_needed = 0, uses_anonymous_args = 0
 106 0000 30B5     		push	{r4, r5, lr}
 107              	.LCFI2:
 108              		.cfi_def_cfa_offset 12
 109              		.cfi_offset 4, -12
 110              		.cfi_offset 5, -8
 111              		.cfi_offset 14, -4
 112 0002 83B0     		sub	sp, sp, #12
 113              	.LCFI3:
 114              		.cfi_def_cfa_offset 24
  22:Src/main.c    **** 	GPIO_InitTypeDef GPIO_InitStructure;
 115              		.loc 1 22 2 view .LVU20
  23:Src/main.c    **** 	RCC_AHB1PeriphClockCmd(RCC_AHB1Periph_GPIOB, ENABLE);
 116              		.loc 1 23 2 view .LVU21
 117 0004 0121     		movs	r1, #1
 118 0006 0220     		movs	r0, #2
 119 0008 FFF7FEFF 		bl	RCC_AHB1PeriphClockCmd
 120              	.LVL9:
  24:Src/main.c    **** 	GPIO_InitStructure.GPIO_Pin = GPIO_Pin_8 | GPIO_Pin_9; 
 121              		.loc 1 24 2 view .LVU22
 122              		.loc 1 24 30 is_stmt 0 view .LVU23
 123 000c 4FF44075 		mov	r5, #768
 124 0010 0095     		str	r5, [sp]
  25:Src/main.c    **** 	GPIO_InitStructure.GPIO_Mode = GPIO_Mode_OUT;
 125              		.loc 1 25 2 is_stmt 1 view .LVU24
 126              		.loc 1 25 31 is_stmt 0 view .LVU25
 127 0012 0123     		movs	r3, #1
 128 0014 8DF80430 		strb	r3, [sp, #4]
  26:Src/main.c    ****     GPIO_InitStructure.GPIO_OType = GPIO_OType_PP;
 129              		.loc 1 26 5 is_stmt 1 view .LVU26
 130              		.loc 1 26 35 is_stmt 0 view .LVU27
 131 0018 0023     		movs	r3, #0
 132 001a 8DF80630 		strb	r3, [sp, #6]
  27:Src/main.c    ****     GPIO_InitStructure.GPIO_PuPd = GPIO_PuPd_NOPULL; 
 133              		.loc 1 27 5 is_stmt 1 view .LVU28
 134              		.loc 1 27 34 is_stmt 0 view .LVU29
 135 001e 8DF80730 		strb	r3, [sp, #7]
  28:Src/main.c    **** 	GPIO_InitStructure.GPIO_Speed = GPIO_Speed_2MHz; 
 136              		.loc 1 28 2 is_stmt 1 view .LVU30
 137              		.loc 1 28 32 is_stmt 0 view .LVU31
 138 0022 8DF80530 		strb	r3, [sp, #5]
  29:Src/main.c    **** 	GPIO_Init(GPIOB, &GPIO_InitStructure);
 139              		.loc 1 29 2 is_stmt 1 view .LVU32
 140 0026 054C     		ldr	r4, .L10
 141 0028 6946     		mov	r1, sp
ARM GAS  /tmp/ccYKn5UJ.s 			page 4


 142 002a 2046     		mov	r0, r4
 143 002c FFF7FEFF 		bl	GPIO_Init
 144              	.LVL10:
  30:Src/main.c    **** 	GPIO_SetBits(GPIOB,GPIO_Pin_8 | GPIO_Pin_9); 
 145              		.loc 1 30 2 view .LVU33
 146 0030 2946     		mov	r1, r5
 147 0032 2046     		mov	r0, r4
 148 0034 FFF7FEFF 		bl	GPIO_SetBits
 149              	.LVL11:
  31:Src/main.c    **** }
 150              		.loc 1 31 1 is_stmt 0 view .LVU34
 151 0038 03B0     		add	sp, sp, #12
 152              	.LCFI4:
 153              		.cfi_def_cfa_offset 12
 154              		@ sp needed
 155 003a 30BD     		pop	{r4, r5, pc}
 156              	.L11:
 157              		.align	2
 158              	.L10:
 159 003c 00040240 		.word	1073873920
 160              		.cfi_endproc
 161              	.LFE131:
 163              		.section	.text.main,"ax",%progbits
 164              		.align	1
 165              		.global	main
 166              		.syntax unified
 167              		.thumb
 168              		.thumb_func
 169              		.fpu fpv4-sp-d16
 171              	main:
 172              	.LFB132:
  32:Src/main.c    **** 
  33:Src/main.c    **** int main()
  34:Src/main.c    **** {
 173              		.loc 1 34 1 is_stmt 1 view -0
 174              		.cfi_startproc
 175              		@ Volatile: function does not return.
 176              		@ args = 0, pretend = 0, frame = 0
 177              		@ frame_needed = 0, uses_anonymous_args = 0
 178 0000 08B5     		push	{r3, lr}
 179              	.LCFI5:
 180              		.cfi_def_cfa_offset 8
 181              		.cfi_offset 3, -8
 182              		.cfi_offset 14, -4
  35:Src/main.c    ****     // SystemInit();
  36:Src/main.c    ****     LedInit();
 183              		.loc 1 36 5 view .LVU36
 184 0002 FFF7FEFF 		bl	LedInit
 185              	.LVL12:
 186              	.L13:
  37:Src/main.c    **** 
  38:Src/main.c    **** 	while (1) {
 187              		.loc 1 38 2 discriminator 1 view .LVU37
  39:Src/main.c    **** 		delay_ms(500);
 188              		.loc 1 39 3 discriminator 1 view .LVU38
 189 0006 4FF4FA70 		mov	r0, #500
 190 000a FFF7FEFF 		bl	delay_ms
ARM GAS  /tmp/ccYKn5UJ.s 			page 5


 191              	.LVL13:
  40:Src/main.c    **** 		LED_GREEN_ON();
 192              		.loc 1 40 3 discriminator 1 view .LVU39
 193 000e 0D4C     		ldr	r4, .L15
 194 0010 4FF40071 		mov	r1, #512
 195 0014 2046     		mov	r0, r4
 196 0016 FFF7FEFF 		bl	GPIO_ResetBits
 197              	.LVL14:
  41:Src/main.c    ****         LED_RED_OFF();
 198              		.loc 1 41 9 discriminator 1 view .LVU40
 199 001a 4FF48071 		mov	r1, #256
 200 001e 2046     		mov	r0, r4
 201 0020 FFF7FEFF 		bl	GPIO_SetBits
 202              	.LVL15:
  42:Src/main.c    ****         delay_ms(500);
 203              		.loc 1 42 9 discriminator 1 view .LVU41
 204 0024 4FF4FA70 		mov	r0, #500
 205 0028 FFF7FEFF 		bl	delay_ms
 206              	.LVL16:
  43:Src/main.c    ****         LED_GREEN_OFF();
 207              		.loc 1 43 9 discriminator 1 view .LVU42
 208 002c 4FF40071 		mov	r1, #512
 209 0030 2046     		mov	r0, r4
 210 0032 FFF7FEFF 		bl	GPIO_SetBits
 211              	.LVL17:
  44:Src/main.c    ****         LED_RED_ON();
 212              		.loc 1 44 9 discriminator 1 view .LVU43
 213 0036 4FF48071 		mov	r1, #256
 214 003a 2046     		mov	r0, r4
 215 003c FFF7FEFF 		bl	GPIO_ResetBits
 216              	.LVL18:
  38:Src/main.c    **** 		delay_ms(500);
 217              		.loc 1 38 8 discriminator 1 view .LVU44
 218 0040 E1E7     		b	.L13
 219              	.L16:
 220 0042 00BF     		.align	2
 221              	.L15:
 222 0044 00040240 		.word	1073873920
 223              		.cfi_endproc
 224              	.LFE132:
 226              		.text
 227              	.Letext0:
 228              		.file 2 "/home/way/Programs/gcc-arm-none-eabi/arm-none-eabi/include/machine/_default_types.h"
 229              		.file 3 "/home/way/Programs/gcc-arm-none-eabi/arm-none-eabi/include/sys/_stdint.h"
 230              		.file 4 "Drivers/CMSIS/Core/Include/core_cm4.h"
 231              		.file 5 "Inc/system_stm32f4xx.h"
 232              		.file 6 "Inc/stm32f4xx.h"
 233              		.file 7 "Drivers/STM32F4xx_StdPeriph_Driver/inc/stm32f4xx_gpio.h"
 234              		.file 8 "Drivers/STM32F4xx_StdPeriph_Driver/inc/stm32f4xx_rcc.h"
ARM GAS  /tmp/ccYKn5UJ.s 			page 6

