ARM GAS  /tmp/ccwHHigy.s 			page 1


   1              		.cpu cortex-m4
   2              		.eabi_attribute 27, 1
   3              		.eabi_attribute 28, 1
   4              		.eabi_attribute 20, 1
   5              		.eabi_attribute 21, 1
   6              		.eabi_attribute 23, 3
   7              		.eabi_attribute 24, 1
   8              		.eabi_attribute 25, 1
   9              		.eabi_attribute 26, 1
  10              		.eabi_attribute 30, 1
  11              		.eabi_attribute 34, 1
  12              		.eabi_attribute 18, 4
  13              		.file	"os_time.c"
  14              		.text
  15              	.Ltext0:
  16              		.cfi_sections	.debug_frame
  17              		.section	.text.OSTimeDly,"ax",%progbits
  18              		.align	1
  19              		.global	OSTimeDly
  20              		.arch armv7e-m
  21              		.syntax unified
  22              		.thumb
  23              		.thumb_func
  24              		.fpu fpv4-sp-d16
  26              	OSTimeDly:
  27              	.LVL0:
  28              	.LFB0:
  29              		.file 1 "uCOSII/Source/os_time.c"
   1:uCOSII/Source/os_time.c **** /*
   2:uCOSII/Source/os_time.c **** ***************************************************************************************************
   3:uCOSII/Source/os_time.c **** *                                                uC/OS-II
   4:uCOSII/Source/os_time.c **** *                                          The Real-Time Kernel
   5:uCOSII/Source/os_time.c **** *                                             TIME MANAGEMENT
   6:uCOSII/Source/os_time.c **** *
   7:uCOSII/Source/os_time.c **** *                              (c) Copyright 1992-2013, Micrium, Weston, FL
   8:uCOSII/Source/os_time.c **** *                                           All Rights Reserved
   9:uCOSII/Source/os_time.c **** *
  10:uCOSII/Source/os_time.c **** * File    : OS_TIME.C
  11:uCOSII/Source/os_time.c **** * By      : Jean J. Labrosse
  12:uCOSII/Source/os_time.c **** * Version : V2.92.11
  13:uCOSII/Source/os_time.c **** *
  14:uCOSII/Source/os_time.c **** * LICENSING TERMS:
  15:uCOSII/Source/os_time.c **** * ---------------
  16:uCOSII/Source/os_time.c **** *   uC/OS-II is provided in source form for FREE evaluation, for educational use or for peaceful re
  17:uCOSII/Source/os_time.c **** * If you plan on using  uC/OS-II  in a commercial product you need to contact Micrium to properly l
  18:uCOSII/Source/os_time.c **** * its use in your product. We provide ALL the source code for your convenience and to help you expe
  19:uCOSII/Source/os_time.c **** * uC/OS-II.   The fact that the  source is provided does  NOT  mean that you can use it without  pa
  20:uCOSII/Source/os_time.c **** * licensing fee.
  21:uCOSII/Source/os_time.c **** ***************************************************************************************************
  22:uCOSII/Source/os_time.c **** */
  23:uCOSII/Source/os_time.c **** 
  24:uCOSII/Source/os_time.c **** #define  MICRIUM_SOURCE
  25:uCOSII/Source/os_time.c **** 
  26:uCOSII/Source/os_time.c **** #ifndef  OS_MASTER_FILE
  27:uCOSII/Source/os_time.c **** #include <ucos_ii.h>
  28:uCOSII/Source/os_time.c **** #endif
  29:uCOSII/Source/os_time.c **** 
ARM GAS  /tmp/ccwHHigy.s 			page 2


  30:uCOSII/Source/os_time.c **** /*
  31:uCOSII/Source/os_time.c **** ***************************************************************************************************
  32:uCOSII/Source/os_time.c **** *                                        DELAY TASK 'n' TICKS
  33:uCOSII/Source/os_time.c **** *
  34:uCOSII/Source/os_time.c **** * Description: This function is called to delay execution of the currently running task until the
  35:uCOSII/Source/os_time.c **** *              specified number of system ticks expires.  This, of course, directly equates to dela
  36:uCOSII/Source/os_time.c **** *              the current task for some time to expire.  No delay will result If the specified del
  37:uCOSII/Source/os_time.c **** *              0.  If the specified delay is greater than 0 then, a context switch will result.
  38:uCOSII/Source/os_time.c **** *
  39:uCOSII/Source/os_time.c **** * Arguments  : ticks     is the time delay that the task will be suspended in number of clock 'tick
  40:uCOSII/Source/os_time.c **** *                        Note that by specifying 0, the task will not be delayed.
  41:uCOSII/Source/os_time.c **** *
  42:uCOSII/Source/os_time.c **** * Returns    : none
  43:uCOSII/Source/os_time.c **** ***************************************************************************************************
  44:uCOSII/Source/os_time.c **** */
  45:uCOSII/Source/os_time.c **** 
  46:uCOSII/Source/os_time.c **** void  OSTimeDly (INT32U ticks)
  47:uCOSII/Source/os_time.c **** {
  30              		.loc 1 47 1 view -0
  31              		.cfi_startproc
  32              		@ args = 0, pretend = 0, frame = 0
  33              		@ frame_needed = 0, uses_anonymous_args = 0
  48:uCOSII/Source/os_time.c ****     INT8U      y;
  34              		.loc 1 48 5 view .LVU1
  49:uCOSII/Source/os_time.c **** #if OS_CRITICAL_METHOD == 3u                     /* Allocate storage for CPU status register       
  50:uCOSII/Source/os_time.c ****     OS_CPU_SR  cpu_sr = 0u;
  35              		.loc 1 50 5 view .LVU2
  51:uCOSII/Source/os_time.c **** #endif
  52:uCOSII/Source/os_time.c **** 
  53:uCOSII/Source/os_time.c **** 
  54:uCOSII/Source/os_time.c **** 
  55:uCOSII/Source/os_time.c ****     if (OSIntNesting > 0u) {                     /* See if trying to call from an ISR              
  36              		.loc 1 55 5 view .LVU3
  37              		.loc 1 55 22 is_stmt 0 view .LVU4
  38 0000 124B     		ldr	r3, .L9
  39 0002 1B78     		ldrb	r3, [r3]	@ zero_extendqisi2
  40              		.loc 1 55 8 view .LVU5
  41 0004 0BBB     		cbnz	r3, .L5
  47:uCOSII/Source/os_time.c ****     INT8U      y;
  42              		.loc 1 47 1 view .LVU6
  43 0006 70B5     		push	{r4, r5, r6, lr}
  44              	.LCFI0:
  45              		.cfi_def_cfa_offset 16
  46              		.cfi_offset 4, -16
  47              		.cfi_offset 5, -12
  48              		.cfi_offset 6, -8
  49              		.cfi_offset 14, -4
  50 0008 0446     		mov	r4, r0
  56:uCOSII/Source/os_time.c ****         return;
  57:uCOSII/Source/os_time.c ****     }
  58:uCOSII/Source/os_time.c ****     if (OSLockNesting > 0u) {                    /* See if called with scheduler locked            
  51              		.loc 1 58 5 is_stmt 1 view .LVU7
  52              		.loc 1 58 23 is_stmt 0 view .LVU8
  53 000a 114B     		ldr	r3, .L9+4
  54 000c 1B78     		ldrb	r3, [r3]	@ zero_extendqisi2
  55              		.loc 1 58 8 view .LVU9
  56 000e 03B9     		cbnz	r3, .L1
ARM GAS  /tmp/ccwHHigy.s 			page 3


  59:uCOSII/Source/os_time.c ****         return;
  60:uCOSII/Source/os_time.c ****     }
  61:uCOSII/Source/os_time.c ****     if (ticks > 0u) {                            /* 0 means no delay!                              
  57              		.loc 1 61 5 is_stmt 1 view .LVU10
  58              		.loc 1 61 8 is_stmt 0 view .LVU11
  59 0010 00B9     		cbnz	r0, .L8
  60              	.LVL1:
  61              	.L1:
  62:uCOSII/Source/os_time.c ****         OS_ENTER_CRITICAL();
  63:uCOSII/Source/os_time.c ****         y            =  OSTCBCur->OSTCBY;        /* Delay current task                             
  64:uCOSII/Source/os_time.c ****         OSRdyTbl[y] &= (OS_PRIO)~OSTCBCur->OSTCBBitX;
  65:uCOSII/Source/os_time.c ****         if (OSRdyTbl[y] == 0u) {
  66:uCOSII/Source/os_time.c ****             OSRdyGrp &= (OS_PRIO)~OSTCBCur->OSTCBBitY;
  67:uCOSII/Source/os_time.c ****         }
  68:uCOSII/Source/os_time.c ****         OSTCBCur->OSTCBDly = ticks;              /* Load ticks in TCB                              
  69:uCOSII/Source/os_time.c ****         OS_EXIT_CRITICAL();
  70:uCOSII/Source/os_time.c ****         OS_Sched();                              /* Find next task to run!                         
  71:uCOSII/Source/os_time.c ****     }
  72:uCOSII/Source/os_time.c **** }
  62              		.loc 1 72 1 view .LVU12
  63 0012 70BD     		pop	{r4, r5, r6, pc}
  64              	.LVL2:
  65              	.L8:
  62:uCOSII/Source/os_time.c ****         OS_ENTER_CRITICAL();
  66              		.loc 1 62 9 is_stmt 1 view .LVU13
  67 0014 FFF7FEFF 		bl	OS_CPU_SR_Save
  68              	.LVL3:
  62:uCOSII/Source/os_time.c ****         OS_ENTER_CRITICAL();
  69              		.loc 1 62 28 view .LVU14
  63:uCOSII/Source/os_time.c ****         OSRdyTbl[y] &= (OS_PRIO)~OSTCBCur->OSTCBBitX;
  70              		.loc 1 63 9 view .LVU15
  63:uCOSII/Source/os_time.c ****         OSRdyTbl[y] &= (OS_PRIO)~OSTCBCur->OSTCBBitX;
  71              		.loc 1 63 33 is_stmt 0 view .LVU16
  72 0018 0E4B     		ldr	r3, .L9+8
  73 001a 1A68     		ldr	r2, [r3]
  63:uCOSII/Source/os_time.c ****         OSRdyTbl[y] &= (OS_PRIO)~OSTCBCur->OSTCBBitX;
  74              		.loc 1 63 22 view .LVU17
  75 001c 92F83810 		ldrb	r1, [r2, #56]	@ zero_extendqisi2
  76              	.LVL4:
  64:uCOSII/Source/os_time.c ****         if (OSRdyTbl[y] == 0u) {
  77              		.loc 1 64 9 is_stmt 1 view .LVU18
  64:uCOSII/Source/os_time.c ****         if (OSRdyTbl[y] == 0u) {
  78              		.loc 1 64 42 is_stmt 0 view .LVU19
  79 0020 92F83960 		ldrb	r6, [r2, #57]	@ zero_extendqisi2
  64:uCOSII/Source/os_time.c ****         if (OSRdyTbl[y] == 0u) {
  80              		.loc 1 64 21 view .LVU20
  81 0024 0C4D     		ldr	r5, .L9+12
  82 0026 6B5C     		ldrb	r3, [r5, r1]	@ zero_extendqisi2
  83 0028 23EA0603 		bic	r3, r3, r6
  84 002c 6B54     		strb	r3, [r5, r1]
  65:uCOSII/Source/os_time.c ****             OSRdyGrp &= (OS_PRIO)~OSTCBCur->OSTCBBitY;
  85              		.loc 1 65 9 is_stmt 1 view .LVU21
  65:uCOSII/Source/os_time.c ****             OSRdyGrp &= (OS_PRIO)~OSTCBCur->OSTCBBitY;
  86              		.loc 1 65 12 is_stmt 0 view .LVU22
  87 002e 33B9     		cbnz	r3, .L3
  66:uCOSII/Source/os_time.c ****         }
  88              		.loc 1 66 13 is_stmt 1 view .LVU23
ARM GAS  /tmp/ccwHHigy.s 			page 4


  66:uCOSII/Source/os_time.c ****         }
  89              		.loc 1 66 43 is_stmt 0 view .LVU24
  90 0030 92F83A50 		ldrb	r5, [r2, #58]	@ zero_extendqisi2
  66:uCOSII/Source/os_time.c ****         }
  91              		.loc 1 66 22 view .LVU25
  92 0034 0949     		ldr	r1, .L9+16
  93              	.LVL5:
  66:uCOSII/Source/os_time.c ****         }
  94              		.loc 1 66 22 view .LVU26
  95 0036 0B78     		ldrb	r3, [r1]	@ zero_extendqisi2
  96 0038 23EA0503 		bic	r3, r3, r5
  97 003c 0B70     		strb	r3, [r1]
  98              	.L3:
  68:uCOSII/Source/os_time.c ****         OS_EXIT_CRITICAL();
  99              		.loc 1 68 9 is_stmt 1 view .LVU27
  68:uCOSII/Source/os_time.c ****         OS_EXIT_CRITICAL();
 100              		.loc 1 68 28 is_stmt 0 view .LVU28
 101 003e 1463     		str	r4, [r2, #48]
  69:uCOSII/Source/os_time.c ****         OS_Sched();                              /* Find next task to run!                         
 102              		.loc 1 69 9 is_stmt 1 view .LVU29
 103 0040 FFF7FEFF 		bl	OS_CPU_SR_Restore
 104              	.LVL6:
  69:uCOSII/Source/os_time.c ****         OS_Sched();                              /* Find next task to run!                         
 105              		.loc 1 69 27 view .LVU30
  70:uCOSII/Source/os_time.c ****     }
 106              		.loc 1 70 9 view .LVU31
 107 0044 FFF7FEFF 		bl	OS_Sched
 108              	.LVL7:
 109 0048 E3E7     		b	.L1
 110              	.LVL8:
 111              	.L5:
 112              	.LCFI1:
 113              		.cfi_def_cfa_offset 0
 114              		.cfi_restore 4
 115              		.cfi_restore 5
 116              		.cfi_restore 6
 117              		.cfi_restore 14
  70:uCOSII/Source/os_time.c ****     }
 118              		.loc 1 70 9 is_stmt 0 view .LVU32
 119 004a 7047     		bx	lr
 120              	.L10:
 121              		.align	2
 122              	.L9:
 123 004c 00000000 		.word	OSIntNesting
 124 0050 00000000 		.word	OSLockNesting
 125 0054 00000000 		.word	OSTCBCur
 126 0058 00000000 		.word	OSRdyTbl
 127 005c 00000000 		.word	OSRdyGrp
 128              		.cfi_endproc
 129              	.LFE0:
 131              		.section	.text.OSTimeDlyHMSM,"ax",%progbits
 132              		.align	1
 133              		.global	OSTimeDlyHMSM
 134              		.syntax unified
 135              		.thumb
 136              		.thumb_func
 137              		.fpu fpv4-sp-d16
ARM GAS  /tmp/ccwHHigy.s 			page 5


 139              	OSTimeDlyHMSM:
 140              	.LVL9:
 141              	.LFB1:
  73:uCOSII/Source/os_time.c **** /*$PAGE*/
  74:uCOSII/Source/os_time.c **** /*
  75:uCOSII/Source/os_time.c **** ***************************************************************************************************
  76:uCOSII/Source/os_time.c **** *                                    DELAY TASK FOR SPECIFIED TIME
  77:uCOSII/Source/os_time.c **** *
  78:uCOSII/Source/os_time.c **** * Description: This function is called to delay execution of the currently running task until some 
  79:uCOSII/Source/os_time.c **** *              expires.  This call allows you to specify the delay time in HOURS, MINUTES, SECONDS 
  80:uCOSII/Source/os_time.c **** *              MILLISECONDS instead of ticks.
  81:uCOSII/Source/os_time.c **** *
  82:uCOSII/Source/os_time.c **** * Arguments  : hours     specifies the number of hours that the task will be delayed (max. is 255)
  83:uCOSII/Source/os_time.c **** *              minutes   specifies the number of minutes (max. 59)
  84:uCOSII/Source/os_time.c **** *              seconds   specifies the number of seconds (max. 59)
  85:uCOSII/Source/os_time.c **** *              ms        specifies the number of milliseconds (max. 999)
  86:uCOSII/Source/os_time.c **** *
  87:uCOSII/Source/os_time.c **** * Returns    : OS_ERR_NONE
  88:uCOSII/Source/os_time.c **** *              OS_ERR_TIME_INVALID_MINUTES
  89:uCOSII/Source/os_time.c **** *              OS_ERR_TIME_INVALID_SECONDS
  90:uCOSII/Source/os_time.c **** *              OS_ERR_TIME_INVALID_MS
  91:uCOSII/Source/os_time.c **** *              OS_ERR_TIME_ZERO_DLY
  92:uCOSII/Source/os_time.c **** *              OS_ERR_TIME_DLY_ISR
  93:uCOSII/Source/os_time.c **** *
  94:uCOSII/Source/os_time.c **** * Note(s)    : The resolution on the milliseconds depends on the tick rate.  For example, you can't
  95:uCOSII/Source/os_time.c **** *              a 10 mS delay if the ticker interrupts every 100 mS.  In this case, the delay would 
  96:uCOSII/Source/os_time.c **** *              set to 0.  The actual delay is rounded to the nearest tick.
  97:uCOSII/Source/os_time.c **** ***************************************************************************************************
  98:uCOSII/Source/os_time.c **** */
  99:uCOSII/Source/os_time.c **** 
 100:uCOSII/Source/os_time.c **** #if OS_TIME_DLY_HMSM_EN > 0u
 101:uCOSII/Source/os_time.c **** INT8U  OSTimeDlyHMSM (INT8U   hours,
 102:uCOSII/Source/os_time.c ****                       INT8U   minutes,
 103:uCOSII/Source/os_time.c ****                       INT8U   seconds,
 104:uCOSII/Source/os_time.c ****                       INT16U  ms)
 105:uCOSII/Source/os_time.c **** {
 142              		.loc 1 105 1 is_stmt 1 view -0
 143              		.cfi_startproc
 144              		@ args = 0, pretend = 0, frame = 0
 145              		@ frame_needed = 0, uses_anonymous_args = 0
 146              		.loc 1 105 1 is_stmt 0 view .LVU34
 147 0000 38B5     		push	{r3, r4, r5, lr}
 148              	.LCFI2:
 149              		.cfi_def_cfa_offset 16
 150              		.cfi_offset 3, -16
 151              		.cfi_offset 4, -12
 152              		.cfi_offset 5, -8
 153              		.cfi_offset 14, -4
 106:uCOSII/Source/os_time.c ****     INT32U ticks;
 154              		.loc 1 106 5 is_stmt 1 view .LVU35
 107:uCOSII/Source/os_time.c **** 
 108:uCOSII/Source/os_time.c **** 
 109:uCOSII/Source/os_time.c ****     if (OSIntNesting > 0u) {                     /* See if trying to call from an ISR              
 155              		.loc 1 109 5 view .LVU36
 156              		.loc 1 109 22 is_stmt 0 view .LVU37
 157 0002 104C     		ldr	r4, .L16
 158 0004 2478     		ldrb	r4, [r4]	@ zero_extendqisi2
ARM GAS  /tmp/ccwHHigy.s 			page 6


 159              		.loc 1 109 8 view .LVU38
 160 0006 CCB9     		cbnz	r4, .L13
 110:uCOSII/Source/os_time.c ****         return (OS_ERR_TIME_DLY_ISR);
 111:uCOSII/Source/os_time.c ****     }
 112:uCOSII/Source/os_time.c ****     if (OSLockNesting > 0u) {                    /* See if called with scheduler locked            
 161              		.loc 1 112 5 is_stmt 1 view .LVU39
 162              		.loc 1 112 23 is_stmt 0 view .LVU40
 163 0008 0F4C     		ldr	r4, .L16+4
 164 000a 2478     		ldrb	r4, [r4]	@ zero_extendqisi2
 165              		.loc 1 112 8 view .LVU41
 166 000c C4B9     		cbnz	r4, .L14
 113:uCOSII/Source/os_time.c ****         return (OS_ERR_SCHED_LOCKED);
 114:uCOSII/Source/os_time.c ****     }
 115:uCOSII/Source/os_time.c **** #if OS_ARG_CHK_EN > 0u
 116:uCOSII/Source/os_time.c ****     if (hours == 0u) {
 117:uCOSII/Source/os_time.c ****         if (minutes == 0u) {
 118:uCOSII/Source/os_time.c ****             if (seconds == 0u) {
 119:uCOSII/Source/os_time.c ****                 if (ms == 0u) {
 120:uCOSII/Source/os_time.c ****                     return (OS_ERR_TIME_ZERO_DLY);
 121:uCOSII/Source/os_time.c ****                 }
 122:uCOSII/Source/os_time.c ****             }
 123:uCOSII/Source/os_time.c ****         }
 124:uCOSII/Source/os_time.c ****     }
 125:uCOSII/Source/os_time.c ****     if (minutes > 59u) {
 126:uCOSII/Source/os_time.c ****         return (OS_ERR_TIME_INVALID_MINUTES);    /* Validate arguments to be within range          
 127:uCOSII/Source/os_time.c ****     }
 128:uCOSII/Source/os_time.c ****     if (seconds > 59u) {
 129:uCOSII/Source/os_time.c ****         return (OS_ERR_TIME_INVALID_SECONDS);
 130:uCOSII/Source/os_time.c ****     }
 131:uCOSII/Source/os_time.c ****     if (ms > 999u) {
 132:uCOSII/Source/os_time.c ****         return (OS_ERR_TIME_INVALID_MS);
 133:uCOSII/Source/os_time.c ****     }
 134:uCOSII/Source/os_time.c **** #endif
 135:uCOSII/Source/os_time.c ****                                                  /* Compute the total number of clock ticks require
 136:uCOSII/Source/os_time.c ****                                                  /* .. (rounded to the nearest tick)               
 137:uCOSII/Source/os_time.c ****     ticks = ((INT32U)hours * 3600uL + (INT32U)minutes * 60uL + (INT32U)seconds) * OS_TICKS_PER_SEC
 167              		.loc 1 137 5 is_stmt 1 view .LVU42
 168              		.loc 1 137 55 is_stmt 0 view .LVU43
 169 000e C1EB0111 		rsb	r1, r1, r1, lsl #4
 170              	.LVL10:
 171              		.loc 1 137 55 view .LVU44
 172 0012 8900     		lsls	r1, r1, #2
 173              		.loc 1 137 37 view .LVU45
 174 0014 4FF46165 		mov	r5, #3600
 175 0018 05FB0011 		mla	r1, r5, r0, r1
 176              		.loc 1 137 62 view .LVU46
 177 001c 0A44     		add	r2, r2, r1
 178              	.LVL11:
 179              		.loc 1 137 81 view .LVU47
 180 001e 6420     		movs	r0, #100
 181              	.LVL12:
 138:uCOSII/Source/os_time.c ****           + OS_TICKS_PER_SEC * ((INT32U)ms + 500uL / OS_TICKS_PER_SEC) / 1000uL;
 182              		.loc 1 138 30 view .LVU48
 183 0020 00FB03F3 		mul	r3, r0, r3
 184              	.LVL13:
 185              		.loc 1 138 30 view .LVU49
 186 0024 03F5FA73 		add	r3, r3, #500
ARM GAS  /tmp/ccwHHigy.s 			page 7


 187              		.loc 1 138 72 view .LVU50
 188 0028 0849     		ldr	r1, .L16+8
 189 002a A1FB0313 		umull	r1, r3, r1, r3
 190 002e 9B09     		lsrs	r3, r3, #6
 191              	.LVL14:
 139:uCOSII/Source/os_time.c ****     OSTimeDly(ticks);
 192              		.loc 1 139 5 is_stmt 1 view .LVU51
 193 0030 00FB0230 		mla	r0, r0, r2, r3
 194              	.LVL15:
 195              		.loc 1 139 5 is_stmt 0 view .LVU52
 196 0034 FFF7FEFF 		bl	OSTimeDly
 197              	.LVL16:
 140:uCOSII/Source/os_time.c ****     return (OS_ERR_NONE);
 198              		.loc 1 140 5 is_stmt 1 view .LVU53
 199              	.L12:
 141:uCOSII/Source/os_time.c **** }
 200              		.loc 1 141 1 is_stmt 0 view .LVU54
 201 0038 2046     		mov	r0, r4
 202 003a 38BD     		pop	{r3, r4, r5, pc}
 203              	.LVL17:
 204              	.L13:
 110:uCOSII/Source/os_time.c ****     }
 205              		.loc 1 110 16 view .LVU55
 206 003c 5524     		movs	r4, #85
 207 003e FBE7     		b	.L12
 208              	.L14:
 113:uCOSII/Source/os_time.c ****     }
 209              		.loc 1 113 16 view .LVU56
 210 0040 3224     		movs	r4, #50
 211 0042 F9E7     		b	.L12
 212              	.L17:
 213              		.align	2
 214              	.L16:
 215 0044 00000000 		.word	OSIntNesting
 216 0048 00000000 		.word	OSLockNesting
 217 004c D34D6210 		.word	274877907
 218              		.cfi_endproc
 219              	.LFE1:
 221              		.section	.text.OSTimeDlyResume,"ax",%progbits
 222              		.align	1
 223              		.global	OSTimeDlyResume
 224              		.syntax unified
 225              		.thumb
 226              		.thumb_func
 227              		.fpu fpv4-sp-d16
 229              	OSTimeDlyResume:
 230              	.LVL18:
 231              	.LFB2:
 142:uCOSII/Source/os_time.c **** #endif
 143:uCOSII/Source/os_time.c **** /*$PAGE*/
 144:uCOSII/Source/os_time.c **** /*
 145:uCOSII/Source/os_time.c **** ***************************************************************************************************
 146:uCOSII/Source/os_time.c **** *                                        RESUME A DELAYED TASK
 147:uCOSII/Source/os_time.c **** *
 148:uCOSII/Source/os_time.c **** * Description: This function is used resume a task that has been delayed through a call to either
 149:uCOSII/Source/os_time.c **** *              OSTimeDly() or OSTimeDlyHMSM().  Note that you can call this function to resume a
 150:uCOSII/Source/os_time.c **** *              task that is waiting for an event with timeout.  This would make the task look
ARM GAS  /tmp/ccwHHigy.s 			page 8


 151:uCOSII/Source/os_time.c **** *              like a timeout occurred.
 152:uCOSII/Source/os_time.c **** *
 153:uCOSII/Source/os_time.c **** * Arguments  : prio                      specifies the priority of the task to resume
 154:uCOSII/Source/os_time.c **** *
 155:uCOSII/Source/os_time.c **** * Returns    : OS_ERR_NONE               Task has been resumed
 156:uCOSII/Source/os_time.c **** *              OS_ERR_PRIO_INVALID       if the priority you specify is higher that the maximum all
 157:uCOSII/Source/os_time.c **** *                                        (i.e. >= OS_LOWEST_PRIO)
 158:uCOSII/Source/os_time.c **** *              OS_ERR_TIME_NOT_DLY       Task is not waiting for time to expire
 159:uCOSII/Source/os_time.c **** *              OS_ERR_TASK_NOT_EXIST     The desired task has not been created or has been assigned
 160:uCOSII/Source/os_time.c **** ***************************************************************************************************
 161:uCOSII/Source/os_time.c **** */
 162:uCOSII/Source/os_time.c **** 
 163:uCOSII/Source/os_time.c **** #if OS_TIME_DLY_RESUME_EN > 0u
 164:uCOSII/Source/os_time.c **** INT8U  OSTimeDlyResume (INT8U prio)
 165:uCOSII/Source/os_time.c **** {
 232              		.loc 1 165 1 is_stmt 1 view -0
 233              		.cfi_startproc
 234              		@ args = 0, pretend = 0, frame = 0
 235              		@ frame_needed = 0, uses_anonymous_args = 0
 236              		.loc 1 165 1 is_stmt 0 view .LVU58
 237 0000 38B5     		push	{r3, r4, r5, lr}
 238              	.LCFI3:
 239              		.cfi_def_cfa_offset 16
 240              		.cfi_offset 3, -16
 241              		.cfi_offset 4, -12
 242              		.cfi_offset 5, -8
 243              		.cfi_offset 14, -4
 166:uCOSII/Source/os_time.c ****     OS_TCB    *ptcb;
 244              		.loc 1 166 5 is_stmt 1 view .LVU59
 167:uCOSII/Source/os_time.c **** #if OS_CRITICAL_METHOD == 3u                                   /* Storage for CPU status register  
 168:uCOSII/Source/os_time.c ****     OS_CPU_SR  cpu_sr = 0u;
 245              		.loc 1 168 5 view .LVU60
 246              	.LVL19:
 169:uCOSII/Source/os_time.c **** #endif
 170:uCOSII/Source/os_time.c **** 
 171:uCOSII/Source/os_time.c **** 
 172:uCOSII/Source/os_time.c **** 
 173:uCOSII/Source/os_time.c ****     if (prio >= OS_LOWEST_PRIO) {
 247              		.loc 1 173 5 view .LVU61
 248              		.loc 1 173 8 is_stmt 0 view .LVU62
 249 0002 3E28     		cmp	r0, #62
 250 0004 44D8     		bhi	.L26
 251 0006 0446     		mov	r4, r0
 174:uCOSII/Source/os_time.c ****         return (OS_ERR_PRIO_INVALID);
 175:uCOSII/Source/os_time.c ****     }
 176:uCOSII/Source/os_time.c ****     OS_ENTER_CRITICAL();
 252              		.loc 1 176 5 is_stmt 1 view .LVU63
 253 0008 FFF7FEFF 		bl	OS_CPU_SR_Save
 254              	.LVL20:
 255              		.loc 1 176 24 view .LVU64
 177:uCOSII/Source/os_time.c ****     ptcb = OSTCBPrioTbl[prio];                                 /* Make sure that task exist        
 256              		.loc 1 177 5 view .LVU65
 257              		.loc 1 177 10 is_stmt 0 view .LVU66
 258 000c 224B     		ldr	r3, .L31
 259 000e 53F82430 		ldr	r3, [r3, r4, lsl #2]
 260              	.LVL21:
 178:uCOSII/Source/os_time.c ****     if (ptcb == (OS_TCB *)0) {
ARM GAS  /tmp/ccwHHigy.s 			page 9


 261              		.loc 1 178 5 is_stmt 1 view .LVU67
 262              		.loc 1 178 8 is_stmt 0 view .LVU68
 263 0012 4BB3     		cbz	r3, .L28
 179:uCOSII/Source/os_time.c ****         OS_EXIT_CRITICAL();
 180:uCOSII/Source/os_time.c ****         return (OS_ERR_TASK_NOT_EXIST);                        /* The task does not exist          
 181:uCOSII/Source/os_time.c ****     }
 182:uCOSII/Source/os_time.c ****     if (ptcb == OS_TCB_RESERVED) {
 264              		.loc 1 182 5 is_stmt 1 view .LVU69
 265              		.loc 1 182 8 is_stmt 0 view .LVU70
 266 0014 012B     		cmp	r3, #1
 267 0016 2BD0     		beq	.L29
 183:uCOSII/Source/os_time.c ****         OS_EXIT_CRITICAL();
 184:uCOSII/Source/os_time.c ****         return (OS_ERR_TASK_NOT_EXIST);                        /* The task does not exist          
 185:uCOSII/Source/os_time.c ****     }
 186:uCOSII/Source/os_time.c ****     if (ptcb->OSTCBDly == 0u) {                                /* See if task is delayed           
 268              		.loc 1 186 5 is_stmt 1 view .LVU71
 269              		.loc 1 186 13 is_stmt 0 view .LVU72
 270 0018 1A6B     		ldr	r2, [r3, #48]
 271              		.loc 1 186 8 view .LVU73
 272 001a 6AB3     		cbz	r2, .L30
 187:uCOSII/Source/os_time.c ****         OS_EXIT_CRITICAL();
 188:uCOSII/Source/os_time.c ****         return (OS_ERR_TIME_NOT_DLY);                          /* Indicate that task was not delaye
 189:uCOSII/Source/os_time.c ****     }
 190:uCOSII/Source/os_time.c **** 
 191:uCOSII/Source/os_time.c ****     ptcb->OSTCBDly = 0u;                                       /* Clear the time delay             
 273              		.loc 1 191 5 is_stmt 1 view .LVU74
 274              		.loc 1 191 20 is_stmt 0 view .LVU75
 275 001c 0022     		movs	r2, #0
 276 001e 1A63     		str	r2, [r3, #48]
 192:uCOSII/Source/os_time.c ****     if ((ptcb->OSTCBStat & OS_STAT_PEND_ANY) != OS_STAT_RDY) {
 277              		.loc 1 192 5 is_stmt 1 view .LVU76
 278              		.loc 1 192 14 is_stmt 0 view .LVU77
 279 0020 93F83420 		ldrb	r2, [r3, #52]	@ zero_extendqisi2
 280              		.loc 1 192 8 view .LVU78
 281 0024 12F0370F 		tst	r2, #55
 282 0028 2AD0     		beq	.L23
 193:uCOSII/Source/os_time.c ****         ptcb->OSTCBStat     &= ~OS_STAT_PEND_ANY;              /* Yes, Clear status flag           
 283              		.loc 1 193 9 is_stmt 1 view .LVU79
 284              		.loc 1 193 29 is_stmt 0 view .LVU80
 285 002a 22F03702 		bic	r2, r2, #55
 286 002e 83F83420 		strb	r2, [r3, #52]
 194:uCOSII/Source/os_time.c ****         ptcb->OSTCBStatPend  =  OS_STAT_PEND_TO;               /* Indicate PEND timeout            
 287              		.loc 1 194 9 is_stmt 1 view .LVU81
 288              		.loc 1 194 30 is_stmt 0 view .LVU82
 289 0032 0122     		movs	r2, #1
 290 0034 83F83520 		strb	r2, [r3, #53]
 291              	.L24:
 195:uCOSII/Source/os_time.c ****     } else {
 196:uCOSII/Source/os_time.c ****         ptcb->OSTCBStatPend  =  OS_STAT_PEND_OK;
 197:uCOSII/Source/os_time.c ****     }
 198:uCOSII/Source/os_time.c ****     if ((ptcb->OSTCBStat & OS_STAT_SUSPEND) == OS_STAT_RDY) {  /* Is task suspended?               
 292              		.loc 1 198 5 is_stmt 1 view .LVU83
 293              		.loc 1 198 14 is_stmt 0 view .LVU84
 294 0038 93F83440 		ldrb	r4, [r3, #52]	@ zero_extendqisi2
 295              		.loc 1 198 8 view .LVU85
 296 003c 14F00804 		ands	r4, r4, #8
 297 0040 22D1     		bne	.L25
ARM GAS  /tmp/ccwHHigy.s 			page 10


 199:uCOSII/Source/os_time.c ****         OSRdyGrp               |= ptcb->OSTCBBitY;             /* No,  Make ready                  
 298              		.loc 1 199 9 is_stmt 1 view .LVU86
 299              		.loc 1 199 39 is_stmt 0 view .LVU87
 300 0042 93F83A20 		ldrb	r2, [r3, #58]	@ zero_extendqisi2
 301              		.loc 1 199 32 view .LVU88
 302 0046 1549     		ldr	r1, .L31+4
 303 0048 0D78     		ldrb	r5, [r1]	@ zero_extendqisi2
 304 004a 2A43     		orrs	r2, r2, r5
 305 004c 0A70     		strb	r2, [r1]
 200:uCOSII/Source/os_time.c ****         OSRdyTbl[ptcb->OSTCBY] |= ptcb->OSTCBBitX;
 306              		.loc 1 200 9 is_stmt 1 view .LVU89
 307              		.loc 1 200 22 is_stmt 0 view .LVU90
 308 004e 93F83820 		ldrb	r2, [r3, #56]	@ zero_extendqisi2
 309              		.loc 1 200 39 view .LVU91
 310 0052 93F83930 		ldrb	r3, [r3, #57]	@ zero_extendqisi2
 311              	.LVL22:
 312              		.loc 1 200 32 view .LVU92
 313 0056 1249     		ldr	r1, .L31+8
 314 0058 8D5C     		ldrb	r5, [r1, r2]	@ zero_extendqisi2
 315 005a 2B43     		orrs	r3, r3, r5
 316 005c 8B54     		strb	r3, [r1, r2]
 201:uCOSII/Source/os_time.c ****         OS_EXIT_CRITICAL();
 317              		.loc 1 201 9 is_stmt 1 view .LVU93
 318 005e FFF7FEFF 		bl	OS_CPU_SR_Restore
 319              	.LVL23:
 320              		.loc 1 201 27 view .LVU94
 202:uCOSII/Source/os_time.c ****         OS_Sched();                                            /* See if this is new highest priori
 321              		.loc 1 202 9 view .LVU95
 322 0062 FFF7FEFF 		bl	OS_Sched
 323              	.LVL24:
 324 0066 14E0     		b	.L19
 325              	.LVL25:
 326              	.L28:
 179:uCOSII/Source/os_time.c ****         return (OS_ERR_TASK_NOT_EXIST);                        /* The task does not exist          
 327              		.loc 1 179 9 view .LVU96
 328 0068 FFF7FEFF 		bl	OS_CPU_SR_Restore
 329              	.LVL26:
 179:uCOSII/Source/os_time.c ****         return (OS_ERR_TASK_NOT_EXIST);                        /* The task does not exist          
 330              		.loc 1 179 27 view .LVU97
 180:uCOSII/Source/os_time.c ****     }
 331              		.loc 1 180 9 view .LVU98
 180:uCOSII/Source/os_time.c ****     }
 332              		.loc 1 180 16 is_stmt 0 view .LVU99
 333 006c 4324     		movs	r4, #67
 334 006e 10E0     		b	.L19
 335              	.LVL27:
 336              	.L29:
 183:uCOSII/Source/os_time.c ****         return (OS_ERR_TASK_NOT_EXIST);                        /* The task does not exist          
 337              		.loc 1 183 9 is_stmt 1 view .LVU100
 338 0070 FFF7FEFF 		bl	OS_CPU_SR_Restore
 339              	.LVL28:
 183:uCOSII/Source/os_time.c ****         return (OS_ERR_TASK_NOT_EXIST);                        /* The task does not exist          
 340              		.loc 1 183 27 view .LVU101
 184:uCOSII/Source/os_time.c ****     }
 341              		.loc 1 184 9 view .LVU102
 184:uCOSII/Source/os_time.c ****     }
 342              		.loc 1 184 16 is_stmt 0 view .LVU103
ARM GAS  /tmp/ccwHHigy.s 			page 11


 343 0074 4324     		movs	r4, #67
 344 0076 0CE0     		b	.L19
 345              	.LVL29:
 346              	.L30:
 187:uCOSII/Source/os_time.c ****         return (OS_ERR_TIME_NOT_DLY);                          /* Indicate that task was not delaye
 347              		.loc 1 187 9 is_stmt 1 view .LVU104
 348 0078 FFF7FEFF 		bl	OS_CPU_SR_Restore
 349              	.LVL30:
 187:uCOSII/Source/os_time.c ****         return (OS_ERR_TIME_NOT_DLY);                          /* Indicate that task was not delaye
 350              		.loc 1 187 27 view .LVU105
 188:uCOSII/Source/os_time.c ****     }
 351              		.loc 1 188 9 view .LVU106
 188:uCOSII/Source/os_time.c ****     }
 352              		.loc 1 188 16 is_stmt 0 view .LVU107
 353 007c 5024     		movs	r4, #80
 354 007e 08E0     		b	.L19
 355              	.LVL31:
 356              	.L23:
 196:uCOSII/Source/os_time.c ****     }
 357              		.loc 1 196 9 is_stmt 1 view .LVU108
 196:uCOSII/Source/os_time.c ****     }
 358              		.loc 1 196 30 is_stmt 0 view .LVU109
 359 0080 0022     		movs	r2, #0
 360 0082 83F83520 		strb	r2, [r3, #53]
 361 0086 D7E7     		b	.L24
 362              	.L25:
 203:uCOSII/Source/os_time.c ****     } else {
 204:uCOSII/Source/os_time.c ****         OS_EXIT_CRITICAL();                                    /* Task may be suspended            
 363              		.loc 1 204 9 is_stmt 1 view .LVU110
 364 0088 FFF7FEFF 		bl	OS_CPU_SR_Restore
 365              	.LVL32:
 205:uCOSII/Source/os_time.c ****     }
 206:uCOSII/Source/os_time.c ****     return (OS_ERR_NONE);
 366              		.loc 1 206 12 is_stmt 0 view .LVU111
 367 008c 0024     		movs	r4, #0
 368 008e 00E0     		b	.L19
 369              	.LVL33:
 370              	.L26:
 174:uCOSII/Source/os_time.c ****     }
 371              		.loc 1 174 16 view .LVU112
 372 0090 2A24     		movs	r4, #42
 373              	.LVL34:
 374              	.L19:
 207:uCOSII/Source/os_time.c **** }
 375              		.loc 1 207 1 view .LVU113
 376 0092 2046     		mov	r0, r4
 377 0094 38BD     		pop	{r3, r4, r5, pc}
 378              	.L32:
 379 0096 00BF     		.align	2
 380              	.L31:
 381 0098 00000000 		.word	OSTCBPrioTbl
 382 009c 00000000 		.word	OSRdyGrp
 383 00a0 00000000 		.word	OSRdyTbl
 384              		.cfi_endproc
 385              	.LFE2:
 387              		.section	.text.OSTimeGet,"ax",%progbits
 388              		.align	1
ARM GAS  /tmp/ccwHHigy.s 			page 12


 389              		.global	OSTimeGet
 390              		.syntax unified
 391              		.thumb
 392              		.thumb_func
 393              		.fpu fpv4-sp-d16
 395              	OSTimeGet:
 396              	.LFB3:
 208:uCOSII/Source/os_time.c **** #endif
 209:uCOSII/Source/os_time.c **** /*$PAGE*/
 210:uCOSII/Source/os_time.c **** /*
 211:uCOSII/Source/os_time.c **** ***************************************************************************************************
 212:uCOSII/Source/os_time.c **** *                                       GET CURRENT SYSTEM TIME
 213:uCOSII/Source/os_time.c **** *
 214:uCOSII/Source/os_time.c **** * Description: This function is used by your application to obtain the current value of the 32-bit
 215:uCOSII/Source/os_time.c **** *              counter which keeps track of the number of clock ticks.
 216:uCOSII/Source/os_time.c **** *
 217:uCOSII/Source/os_time.c **** * Arguments  : none
 218:uCOSII/Source/os_time.c **** *
 219:uCOSII/Source/os_time.c **** * Returns    : The current value of OSTime
 220:uCOSII/Source/os_time.c **** ***************************************************************************************************
 221:uCOSII/Source/os_time.c **** */
 222:uCOSII/Source/os_time.c **** 
 223:uCOSII/Source/os_time.c **** #if OS_TIME_GET_SET_EN > 0u
 224:uCOSII/Source/os_time.c **** INT32U  OSTimeGet (void)
 225:uCOSII/Source/os_time.c **** {
 397              		.loc 1 225 1 is_stmt 1 view -0
 398              		.cfi_startproc
 399              		@ args = 0, pretend = 0, frame = 0
 400              		@ frame_needed = 0, uses_anonymous_args = 0
 401 0000 10B5     		push	{r4, lr}
 402              	.LCFI4:
 403              		.cfi_def_cfa_offset 8
 404              		.cfi_offset 4, -8
 405              		.cfi_offset 14, -4
 226:uCOSII/Source/os_time.c ****     INT32U     ticks;
 406              		.loc 1 226 5 view .LVU115
 227:uCOSII/Source/os_time.c **** #if OS_CRITICAL_METHOD == 3u                     /* Allocate storage for CPU status register       
 228:uCOSII/Source/os_time.c ****     OS_CPU_SR  cpu_sr = 0u;
 407              		.loc 1 228 5 view .LVU116
 408              	.LVL35:
 229:uCOSII/Source/os_time.c **** #endif
 230:uCOSII/Source/os_time.c **** 
 231:uCOSII/Source/os_time.c **** 
 232:uCOSII/Source/os_time.c **** 
 233:uCOSII/Source/os_time.c ****     OS_ENTER_CRITICAL();
 409              		.loc 1 233 5 view .LVU117
 410 0002 FFF7FEFF 		bl	OS_CPU_SR_Save
 411              	.LVL36:
 412              		.loc 1 233 24 view .LVU118
 234:uCOSII/Source/os_time.c ****     ticks = OSTime;
 413              		.loc 1 234 5 view .LVU119
 414              		.loc 1 234 11 is_stmt 0 view .LVU120
 415 0006 034B     		ldr	r3, .L35
 416 0008 1C68     		ldr	r4, [r3]
 417              	.LVL37:
 235:uCOSII/Source/os_time.c ****     OS_EXIT_CRITICAL();
 418              		.loc 1 235 5 is_stmt 1 view .LVU121
ARM GAS  /tmp/ccwHHigy.s 			page 13


 419 000a FFF7FEFF 		bl	OS_CPU_SR_Restore
 420              	.LVL38:
 421              		.loc 1 235 23 view .LVU122
 236:uCOSII/Source/os_time.c ****     return (ticks);
 422              		.loc 1 236 5 view .LVU123
 237:uCOSII/Source/os_time.c **** }
 423              		.loc 1 237 1 is_stmt 0 view .LVU124
 424 000e 2046     		mov	r0, r4
 425 0010 10BD     		pop	{r4, pc}
 426              	.LVL39:
 427              	.L36:
 428              		.loc 1 237 1 view .LVU125
 429 0012 00BF     		.align	2
 430              	.L35:
 431 0014 00000000 		.word	OSTime
 432              		.cfi_endproc
 433              	.LFE3:
 435              		.section	.text.OSTimeSet,"ax",%progbits
 436              		.align	1
 437              		.global	OSTimeSet
 438              		.syntax unified
 439              		.thumb
 440              		.thumb_func
 441              		.fpu fpv4-sp-d16
 443              	OSTimeSet:
 444              	.LVL40:
 445              	.LFB4:
 238:uCOSII/Source/os_time.c **** #endif
 239:uCOSII/Source/os_time.c **** 
 240:uCOSII/Source/os_time.c **** /*
 241:uCOSII/Source/os_time.c **** ***************************************************************************************************
 242:uCOSII/Source/os_time.c **** *                                          SET SYSTEM CLOCK
 243:uCOSII/Source/os_time.c **** *
 244:uCOSII/Source/os_time.c **** * Description: This function sets the 32-bit counter which keeps track of the number of clock ticks
 245:uCOSII/Source/os_time.c **** *
 246:uCOSII/Source/os_time.c **** * Arguments  : ticks      specifies the new value that OSTime needs to take.
 247:uCOSII/Source/os_time.c **** *
 248:uCOSII/Source/os_time.c **** * Returns    : none
 249:uCOSII/Source/os_time.c **** ***************************************************************************************************
 250:uCOSII/Source/os_time.c **** */
 251:uCOSII/Source/os_time.c **** 
 252:uCOSII/Source/os_time.c **** #if OS_TIME_GET_SET_EN > 0u
 253:uCOSII/Source/os_time.c **** void  OSTimeSet (INT32U ticks)
 254:uCOSII/Source/os_time.c **** {
 446              		.loc 1 254 1 is_stmt 1 view -0
 447              		.cfi_startproc
 448              		@ args = 0, pretend = 0, frame = 0
 449              		@ frame_needed = 0, uses_anonymous_args = 0
 450              		.loc 1 254 1 is_stmt 0 view .LVU127
 451 0000 10B5     		push	{r4, lr}
 452              	.LCFI5:
 453              		.cfi_def_cfa_offset 8
 454              		.cfi_offset 4, -8
 455              		.cfi_offset 14, -4
 456 0002 0446     		mov	r4, r0
 255:uCOSII/Source/os_time.c **** #if OS_CRITICAL_METHOD == 3u                     /* Allocate storage for CPU status register       
 256:uCOSII/Source/os_time.c ****     OS_CPU_SR  cpu_sr = 0u;
ARM GAS  /tmp/ccwHHigy.s 			page 14


 457              		.loc 1 256 5 is_stmt 1 view .LVU128
 458              	.LVL41:
 257:uCOSII/Source/os_time.c **** #endif
 258:uCOSII/Source/os_time.c **** 
 259:uCOSII/Source/os_time.c **** 
 260:uCOSII/Source/os_time.c **** 
 261:uCOSII/Source/os_time.c ****     OS_ENTER_CRITICAL();
 459              		.loc 1 261 5 view .LVU129
 460 0004 FFF7FEFF 		bl	OS_CPU_SR_Save
 461              	.LVL42:
 462              		.loc 1 261 24 view .LVU130
 262:uCOSII/Source/os_time.c ****     OSTime = ticks;
 463              		.loc 1 262 5 view .LVU131
 464              		.loc 1 262 12 is_stmt 0 view .LVU132
 465 0008 024B     		ldr	r3, .L39
 466 000a 1C60     		str	r4, [r3]
 263:uCOSII/Source/os_time.c ****     OS_EXIT_CRITICAL();
 467              		.loc 1 263 5 is_stmt 1 view .LVU133
 468 000c FFF7FEFF 		bl	OS_CPU_SR_Restore
 469              	.LVL43:
 470              		.loc 1 263 23 view .LVU134
 264:uCOSII/Source/os_time.c **** }
 471              		.loc 1 264 1 is_stmt 0 view .LVU135
 472 0010 10BD     		pop	{r4, pc}
 473              	.LVL44:
 474              	.L40:
 475              		.loc 1 264 1 view .LVU136
 476 0012 00BF     		.align	2
 477              	.L39:
 478 0014 00000000 		.word	OSTime
 479              		.cfi_endproc
 480              	.LFE4:
 482              		.text
 483              	.Letext0:
 484              		.file 2 "uCOSII/Ports/ARM-Cortex-M4/Generic/GNU/os_cpu.h"
 485              		.file 3 "uCOSII/Include/ucos_ii.h"
ARM GAS  /tmp/ccwHHigy.s 			page 15

