ARM GAS  /tmp/ccQsv65w.s 			page 1


   1              		.cpu cortex-m4
   2              		.eabi_attribute 27, 1
   3              		.eabi_attribute 28, 1
   4              		.eabi_attribute 20, 1
   5              		.eabi_attribute 21, 1
   6              		.eabi_attribute 23, 3
   7              		.eabi_attribute 24, 1
   8              		.eabi_attribute 25, 1
   9              		.eabi_attribute 26, 1
  10              		.eabi_attribute 30, 1
  11              		.eabi_attribute 34, 1
  12              		.eabi_attribute 18, 4
  13              		.file	"stm32f4xx_wwdg.c"
  14              		.text
  15              	.Ltext0:
  16              		.cfi_sections	.debug_frame
  17              		.section	.text.WWDG_DeInit,"ax",%progbits
  18              		.align	1
  19              		.global	WWDG_DeInit
  20              		.arch armv7e-m
  21              		.syntax unified
  22              		.thumb
  23              		.thumb_func
  24              		.fpu fpv4-sp-d16
  26              	WWDG_DeInit:
  27              	.LFB130:
  28              		.file 1 "Drivers/STM32F4xx_StdPeriph_Driver/src/stm32f4xx_wwdg.c"
   1:Drivers/STM32F4xx_StdPeriph_Driver/src/stm32f4xx_wwdg.c **** /**
   2:Drivers/STM32F4xx_StdPeriph_Driver/src/stm32f4xx_wwdg.c ****   ******************************************************************************
   3:Drivers/STM32F4xx_StdPeriph_Driver/src/stm32f4xx_wwdg.c ****   * @file    stm32f4xx_wwdg.c
   4:Drivers/STM32F4xx_StdPeriph_Driver/src/stm32f4xx_wwdg.c ****   * @author  MCD Application Team
   5:Drivers/STM32F4xx_StdPeriph_Driver/src/stm32f4xx_wwdg.c ****   * @version V1.0.2
   6:Drivers/STM32F4xx_StdPeriph_Driver/src/stm32f4xx_wwdg.c ****   * @date    05-March-2012
   7:Drivers/STM32F4xx_StdPeriph_Driver/src/stm32f4xx_wwdg.c ****   * @brief   This file provides firmware functions to manage the following 
   8:Drivers/STM32F4xx_StdPeriph_Driver/src/stm32f4xx_wwdg.c ****   *          functionalities of the Window watchdog (WWDG) peripheral:           
   9:Drivers/STM32F4xx_StdPeriph_Driver/src/stm32f4xx_wwdg.c ****   *           - Prescaler, Refresh window and Counter configuration
  10:Drivers/STM32F4xx_StdPeriph_Driver/src/stm32f4xx_wwdg.c ****   *           - WWDG activation
  11:Drivers/STM32F4xx_StdPeriph_Driver/src/stm32f4xx_wwdg.c ****   *           - Interrupts and flags management
  12:Drivers/STM32F4xx_StdPeriph_Driver/src/stm32f4xx_wwdg.c ****   *             
  13:Drivers/STM32F4xx_StdPeriph_Driver/src/stm32f4xx_wwdg.c ****   *  @verbatim
  14:Drivers/STM32F4xx_StdPeriph_Driver/src/stm32f4xx_wwdg.c ****   *    
  15:Drivers/STM32F4xx_StdPeriph_Driver/src/stm32f4xx_wwdg.c ****   *          ===================================================================
  16:Drivers/STM32F4xx_StdPeriph_Driver/src/stm32f4xx_wwdg.c ****   *                                     WWDG features
  17:Drivers/STM32F4xx_StdPeriph_Driver/src/stm32f4xx_wwdg.c ****   *          ===================================================================
  18:Drivers/STM32F4xx_StdPeriph_Driver/src/stm32f4xx_wwdg.c ****   *                                        
  19:Drivers/STM32F4xx_StdPeriph_Driver/src/stm32f4xx_wwdg.c ****   *          Once enabled the WWDG generates a system reset on expiry of a programmed
  20:Drivers/STM32F4xx_StdPeriph_Driver/src/stm32f4xx_wwdg.c ****   *          time period, unless the program refreshes the counter (downcounter) 
  21:Drivers/STM32F4xx_StdPeriph_Driver/src/stm32f4xx_wwdg.c ****   *          before to reach 0x3F value (i.e. a reset is generated when the counter
  22:Drivers/STM32F4xx_StdPeriph_Driver/src/stm32f4xx_wwdg.c ****   *          value rolls over from 0x40 to 0x3F). 
  23:Drivers/STM32F4xx_StdPeriph_Driver/src/stm32f4xx_wwdg.c ****   *          An MCU reset is also generated if the counter value is refreshed
  24:Drivers/STM32F4xx_StdPeriph_Driver/src/stm32f4xx_wwdg.c ****   *          before the counter has reached the refresh window value. This 
  25:Drivers/STM32F4xx_StdPeriph_Driver/src/stm32f4xx_wwdg.c ****   *          implies that the counter must be refreshed in a limited window.
  26:Drivers/STM32F4xx_StdPeriph_Driver/src/stm32f4xx_wwdg.c ****   *            
  27:Drivers/STM32F4xx_StdPeriph_Driver/src/stm32f4xx_wwdg.c ****   *          Once enabled the WWDG cannot be disabled except by a system reset.                    
  28:Drivers/STM32F4xx_StdPeriph_Driver/src/stm32f4xx_wwdg.c ****   *          
  29:Drivers/STM32F4xx_StdPeriph_Driver/src/stm32f4xx_wwdg.c ****   *          WWDGRST flag in RCC_CSR register can be used to inform when a WWDG
  30:Drivers/STM32F4xx_StdPeriph_Driver/src/stm32f4xx_wwdg.c ****   *          reset occurs.
ARM GAS  /tmp/ccQsv65w.s 			page 2


  31:Drivers/STM32F4xx_StdPeriph_Driver/src/stm32f4xx_wwdg.c ****   *            
  32:Drivers/STM32F4xx_StdPeriph_Driver/src/stm32f4xx_wwdg.c ****   *          The WWDG counter input clock is derived from the APB clock divided 
  33:Drivers/STM32F4xx_StdPeriph_Driver/src/stm32f4xx_wwdg.c ****   *          by a programmable prescaler.
  34:Drivers/STM32F4xx_StdPeriph_Driver/src/stm32f4xx_wwdg.c ****   *              
  35:Drivers/STM32F4xx_StdPeriph_Driver/src/stm32f4xx_wwdg.c ****   *          WWDG counter clock = PCLK1 / Prescaler
  36:Drivers/STM32F4xx_StdPeriph_Driver/src/stm32f4xx_wwdg.c ****   *          WWDG timeout = (WWDG counter clock) * (counter value)
  37:Drivers/STM32F4xx_StdPeriph_Driver/src/stm32f4xx_wwdg.c ****   *                      
  38:Drivers/STM32F4xx_StdPeriph_Driver/src/stm32f4xx_wwdg.c ****   *          Min-max timeout value @42 MHz(PCLK1): ~97.5 us / ~49.9 ms
  39:Drivers/STM32F4xx_StdPeriph_Driver/src/stm32f4xx_wwdg.c ****   *                            
  40:Drivers/STM32F4xx_StdPeriph_Driver/src/stm32f4xx_wwdg.c ****   *          ===================================================================
  41:Drivers/STM32F4xx_StdPeriph_Driver/src/stm32f4xx_wwdg.c ****   *                                 How to use this driver
  42:Drivers/STM32F4xx_StdPeriph_Driver/src/stm32f4xx_wwdg.c ****   *          =================================================================== 
  43:Drivers/STM32F4xx_StdPeriph_Driver/src/stm32f4xx_wwdg.c ****   *          1. Enable WWDG clock using RCC_APB1PeriphClockCmd(RCC_APB1Periph_WWDG, ENABLE) functio
  44:Drivers/STM32F4xx_StdPeriph_Driver/src/stm32f4xx_wwdg.c ****   *            
  45:Drivers/STM32F4xx_StdPeriph_Driver/src/stm32f4xx_wwdg.c ****   *          2. Configure the WWDG prescaler using WWDG_SetPrescaler() function
  46:Drivers/STM32F4xx_StdPeriph_Driver/src/stm32f4xx_wwdg.c ****   *                           
  47:Drivers/STM32F4xx_StdPeriph_Driver/src/stm32f4xx_wwdg.c ****   *          3. Configure the WWDG refresh window using WWDG_SetWindowValue() function
  48:Drivers/STM32F4xx_StdPeriph_Driver/src/stm32f4xx_wwdg.c ****   *            
  49:Drivers/STM32F4xx_StdPeriph_Driver/src/stm32f4xx_wwdg.c ****   *          4. Set the WWDG counter value and start it using WWDG_Enable() function.
  50:Drivers/STM32F4xx_StdPeriph_Driver/src/stm32f4xx_wwdg.c ****   *             When the WWDG is enabled the counter value should be configured to 
  51:Drivers/STM32F4xx_StdPeriph_Driver/src/stm32f4xx_wwdg.c ****   *             a value greater than 0x40 to prevent generating an immediate reset.     
  52:Drivers/STM32F4xx_StdPeriph_Driver/src/stm32f4xx_wwdg.c ****   *            
  53:Drivers/STM32F4xx_StdPeriph_Driver/src/stm32f4xx_wwdg.c ****   *          5. Optionally you can enable the Early wakeup interrupt which is 
  54:Drivers/STM32F4xx_StdPeriph_Driver/src/stm32f4xx_wwdg.c ****   *             generated when the counter reach 0x40.
  55:Drivers/STM32F4xx_StdPeriph_Driver/src/stm32f4xx_wwdg.c ****   *             Once enabled this interrupt cannot be disabled except by a system reset.
  56:Drivers/STM32F4xx_StdPeriph_Driver/src/stm32f4xx_wwdg.c ****   *                 
  57:Drivers/STM32F4xx_StdPeriph_Driver/src/stm32f4xx_wwdg.c ****   *          6. Then the application program must refresh the WWDG counter at regular
  58:Drivers/STM32F4xx_StdPeriph_Driver/src/stm32f4xx_wwdg.c ****   *             intervals during normal operation to prevent an MCU reset, using
  59:Drivers/STM32F4xx_StdPeriph_Driver/src/stm32f4xx_wwdg.c ****   *             WWDG_SetCounter() function. This operation must occur only when
  60:Drivers/STM32F4xx_StdPeriph_Driver/src/stm32f4xx_wwdg.c ****   *             the counter value is lower than the refresh window value, 
  61:Drivers/STM32F4xx_StdPeriph_Driver/src/stm32f4xx_wwdg.c ****   *             programmed using WWDG_SetWindowValue().         
  62:Drivers/STM32F4xx_StdPeriph_Driver/src/stm32f4xx_wwdg.c ****   *
  63:Drivers/STM32F4xx_StdPeriph_Driver/src/stm32f4xx_wwdg.c ****   *  @endverbatim  
  64:Drivers/STM32F4xx_StdPeriph_Driver/src/stm32f4xx_wwdg.c ****   *                             
  65:Drivers/STM32F4xx_StdPeriph_Driver/src/stm32f4xx_wwdg.c ****   ******************************************************************************
  66:Drivers/STM32F4xx_StdPeriph_Driver/src/stm32f4xx_wwdg.c ****   * @attention
  67:Drivers/STM32F4xx_StdPeriph_Driver/src/stm32f4xx_wwdg.c ****   *
  68:Drivers/STM32F4xx_StdPeriph_Driver/src/stm32f4xx_wwdg.c ****   * <h2><center>&copy; COPYRIGHT 2012 STMicroelectronics</center></h2>
  69:Drivers/STM32F4xx_StdPeriph_Driver/src/stm32f4xx_wwdg.c ****   *
  70:Drivers/STM32F4xx_StdPeriph_Driver/src/stm32f4xx_wwdg.c ****   * Licensed under MCD-ST Liberty SW License Agreement V2, (the "License");
  71:Drivers/STM32F4xx_StdPeriph_Driver/src/stm32f4xx_wwdg.c ****   * You may not use this file except in compliance with the License.
  72:Drivers/STM32F4xx_StdPeriph_Driver/src/stm32f4xx_wwdg.c ****   * You may obtain a copy of the License at:
  73:Drivers/STM32F4xx_StdPeriph_Driver/src/stm32f4xx_wwdg.c ****   *
  74:Drivers/STM32F4xx_StdPeriph_Driver/src/stm32f4xx_wwdg.c ****   *        http://www.st.com/software_license_agreement_liberty_v2
  75:Drivers/STM32F4xx_StdPeriph_Driver/src/stm32f4xx_wwdg.c ****   *
  76:Drivers/STM32F4xx_StdPeriph_Driver/src/stm32f4xx_wwdg.c ****   * Unless required by applicable law or agreed to in writing, software 
  77:Drivers/STM32F4xx_StdPeriph_Driver/src/stm32f4xx_wwdg.c ****   * distributed under the License is distributed on an "AS IS" BASIS, 
  78:Drivers/STM32F4xx_StdPeriph_Driver/src/stm32f4xx_wwdg.c ****   * WITHOUT WARRANTIES OR CONDITIONS OF ANY KIND, either express or implied.
  79:Drivers/STM32F4xx_StdPeriph_Driver/src/stm32f4xx_wwdg.c ****   * See the License for the specific language governing permissions and
  80:Drivers/STM32F4xx_StdPeriph_Driver/src/stm32f4xx_wwdg.c ****   * limitations under the License.
  81:Drivers/STM32F4xx_StdPeriph_Driver/src/stm32f4xx_wwdg.c ****   *
  82:Drivers/STM32F4xx_StdPeriph_Driver/src/stm32f4xx_wwdg.c ****   ******************************************************************************
  83:Drivers/STM32F4xx_StdPeriph_Driver/src/stm32f4xx_wwdg.c ****   */
  84:Drivers/STM32F4xx_StdPeriph_Driver/src/stm32f4xx_wwdg.c **** 
  85:Drivers/STM32F4xx_StdPeriph_Driver/src/stm32f4xx_wwdg.c **** /* Includes ------------------------------------------------------------------*/
  86:Drivers/STM32F4xx_StdPeriph_Driver/src/stm32f4xx_wwdg.c **** #include "stm32f4xx_wwdg.h"
  87:Drivers/STM32F4xx_StdPeriph_Driver/src/stm32f4xx_wwdg.c **** #include "stm32f4xx_rcc.h"
ARM GAS  /tmp/ccQsv65w.s 			page 3


  88:Drivers/STM32F4xx_StdPeriph_Driver/src/stm32f4xx_wwdg.c **** 
  89:Drivers/STM32F4xx_StdPeriph_Driver/src/stm32f4xx_wwdg.c **** /** @addtogroup STM32F4xx_StdPeriph_Driver
  90:Drivers/STM32F4xx_StdPeriph_Driver/src/stm32f4xx_wwdg.c ****   * @{
  91:Drivers/STM32F4xx_StdPeriph_Driver/src/stm32f4xx_wwdg.c ****   */
  92:Drivers/STM32F4xx_StdPeriph_Driver/src/stm32f4xx_wwdg.c **** 
  93:Drivers/STM32F4xx_StdPeriph_Driver/src/stm32f4xx_wwdg.c **** /** @defgroup WWDG 
  94:Drivers/STM32F4xx_StdPeriph_Driver/src/stm32f4xx_wwdg.c ****   * @brief WWDG driver modules
  95:Drivers/STM32F4xx_StdPeriph_Driver/src/stm32f4xx_wwdg.c ****   * @{
  96:Drivers/STM32F4xx_StdPeriph_Driver/src/stm32f4xx_wwdg.c ****   */
  97:Drivers/STM32F4xx_StdPeriph_Driver/src/stm32f4xx_wwdg.c **** 
  98:Drivers/STM32F4xx_StdPeriph_Driver/src/stm32f4xx_wwdg.c **** /* Private typedef -----------------------------------------------------------*/
  99:Drivers/STM32F4xx_StdPeriph_Driver/src/stm32f4xx_wwdg.c **** /* Private define ------------------------------------------------------------*/
 100:Drivers/STM32F4xx_StdPeriph_Driver/src/stm32f4xx_wwdg.c **** 
 101:Drivers/STM32F4xx_StdPeriph_Driver/src/stm32f4xx_wwdg.c **** /* ----------- WWDG registers bit address in the alias region ----------- */
 102:Drivers/STM32F4xx_StdPeriph_Driver/src/stm32f4xx_wwdg.c **** #define WWDG_OFFSET       (WWDG_BASE - PERIPH_BASE)
 103:Drivers/STM32F4xx_StdPeriph_Driver/src/stm32f4xx_wwdg.c **** /* Alias word address of EWI bit */
 104:Drivers/STM32F4xx_StdPeriph_Driver/src/stm32f4xx_wwdg.c **** #define CFR_OFFSET        (WWDG_OFFSET + 0x04)
 105:Drivers/STM32F4xx_StdPeriph_Driver/src/stm32f4xx_wwdg.c **** #define EWI_BitNumber     0x09
 106:Drivers/STM32F4xx_StdPeriph_Driver/src/stm32f4xx_wwdg.c **** #define CFR_EWI_BB        (PERIPH_BB_BASE + (CFR_OFFSET * 32) + (EWI_BitNumber * 4))
 107:Drivers/STM32F4xx_StdPeriph_Driver/src/stm32f4xx_wwdg.c **** 
 108:Drivers/STM32F4xx_StdPeriph_Driver/src/stm32f4xx_wwdg.c **** /* --------------------- WWDG registers bit mask ------------------------ */
 109:Drivers/STM32F4xx_StdPeriph_Driver/src/stm32f4xx_wwdg.c **** /* CFR register bit mask */
 110:Drivers/STM32F4xx_StdPeriph_Driver/src/stm32f4xx_wwdg.c **** #define CFR_WDGTB_MASK    ((uint32_t)0xFFFFFE7F)
 111:Drivers/STM32F4xx_StdPeriph_Driver/src/stm32f4xx_wwdg.c **** #define CFR_W_MASK        ((uint32_t)0xFFFFFF80)
 112:Drivers/STM32F4xx_StdPeriph_Driver/src/stm32f4xx_wwdg.c **** #define BIT_MASK          ((uint8_t)0x7F)
 113:Drivers/STM32F4xx_StdPeriph_Driver/src/stm32f4xx_wwdg.c **** 
 114:Drivers/STM32F4xx_StdPeriph_Driver/src/stm32f4xx_wwdg.c **** /* Private macro -------------------------------------------------------------*/
 115:Drivers/STM32F4xx_StdPeriph_Driver/src/stm32f4xx_wwdg.c **** /* Private variables ---------------------------------------------------------*/
 116:Drivers/STM32F4xx_StdPeriph_Driver/src/stm32f4xx_wwdg.c **** /* Private function prototypes -----------------------------------------------*/
 117:Drivers/STM32F4xx_StdPeriph_Driver/src/stm32f4xx_wwdg.c **** /* Private functions ---------------------------------------------------------*/
 118:Drivers/STM32F4xx_StdPeriph_Driver/src/stm32f4xx_wwdg.c **** 
 119:Drivers/STM32F4xx_StdPeriph_Driver/src/stm32f4xx_wwdg.c **** /** @defgroup WWDG_Private_Functions
 120:Drivers/STM32F4xx_StdPeriph_Driver/src/stm32f4xx_wwdg.c ****   * @{
 121:Drivers/STM32F4xx_StdPeriph_Driver/src/stm32f4xx_wwdg.c ****   */
 122:Drivers/STM32F4xx_StdPeriph_Driver/src/stm32f4xx_wwdg.c **** 
 123:Drivers/STM32F4xx_StdPeriph_Driver/src/stm32f4xx_wwdg.c **** /** @defgroup WWDG_Group1 Prescaler, Refresh window and Counter configuration functions
 124:Drivers/STM32F4xx_StdPeriph_Driver/src/stm32f4xx_wwdg.c ****  *  @brief   Prescaler, Refresh window and Counter configuration functions 
 125:Drivers/STM32F4xx_StdPeriph_Driver/src/stm32f4xx_wwdg.c ****  *
 126:Drivers/STM32F4xx_StdPeriph_Driver/src/stm32f4xx_wwdg.c **** @verbatim   
 127:Drivers/STM32F4xx_StdPeriph_Driver/src/stm32f4xx_wwdg.c ****  ===============================================================================
 128:Drivers/STM32F4xx_StdPeriph_Driver/src/stm32f4xx_wwdg.c ****           Prescaler, Refresh window and Counter configuration functions
 129:Drivers/STM32F4xx_StdPeriph_Driver/src/stm32f4xx_wwdg.c ****  ===============================================================================  
 130:Drivers/STM32F4xx_StdPeriph_Driver/src/stm32f4xx_wwdg.c **** 
 131:Drivers/STM32F4xx_StdPeriph_Driver/src/stm32f4xx_wwdg.c **** @endverbatim
 132:Drivers/STM32F4xx_StdPeriph_Driver/src/stm32f4xx_wwdg.c ****   * @{
 133:Drivers/STM32F4xx_StdPeriph_Driver/src/stm32f4xx_wwdg.c ****   */
 134:Drivers/STM32F4xx_StdPeriph_Driver/src/stm32f4xx_wwdg.c **** 
 135:Drivers/STM32F4xx_StdPeriph_Driver/src/stm32f4xx_wwdg.c **** /**
 136:Drivers/STM32F4xx_StdPeriph_Driver/src/stm32f4xx_wwdg.c ****   * @brief  Deinitializes the WWDG peripheral registers to their default reset values.
 137:Drivers/STM32F4xx_StdPeriph_Driver/src/stm32f4xx_wwdg.c ****   * @param  None
 138:Drivers/STM32F4xx_StdPeriph_Driver/src/stm32f4xx_wwdg.c ****   * @retval None
 139:Drivers/STM32F4xx_StdPeriph_Driver/src/stm32f4xx_wwdg.c ****   */
 140:Drivers/STM32F4xx_StdPeriph_Driver/src/stm32f4xx_wwdg.c **** void WWDG_DeInit(void)
 141:Drivers/STM32F4xx_StdPeriph_Driver/src/stm32f4xx_wwdg.c **** {
  29              		.loc 1 141 1 view -0
  30              		.cfi_startproc
  31              		@ args = 0, pretend = 0, frame = 0
ARM GAS  /tmp/ccQsv65w.s 			page 4


  32              		@ frame_needed = 0, uses_anonymous_args = 0
  33 0000 08B5     		push	{r3, lr}
  34              	.LCFI0:
  35              		.cfi_def_cfa_offset 8
  36              		.cfi_offset 3, -8
  37              		.cfi_offset 14, -4
 142:Drivers/STM32F4xx_StdPeriph_Driver/src/stm32f4xx_wwdg.c ****   RCC_APB1PeriphResetCmd(RCC_APB1Periph_WWDG, ENABLE);
  38              		.loc 1 142 3 view .LVU1
  39 0002 0121     		movs	r1, #1
  40 0004 4FF40060 		mov	r0, #2048
  41 0008 FFF7FEFF 		bl	RCC_APB1PeriphResetCmd
  42              	.LVL0:
 143:Drivers/STM32F4xx_StdPeriph_Driver/src/stm32f4xx_wwdg.c ****   RCC_APB1PeriphResetCmd(RCC_APB1Periph_WWDG, DISABLE);
  43              		.loc 1 143 3 view .LVU2
  44 000c 0021     		movs	r1, #0
  45 000e 4FF40060 		mov	r0, #2048
  46 0012 FFF7FEFF 		bl	RCC_APB1PeriphResetCmd
  47              	.LVL1:
 144:Drivers/STM32F4xx_StdPeriph_Driver/src/stm32f4xx_wwdg.c **** }
  48              		.loc 1 144 1 is_stmt 0 view .LVU3
  49 0016 08BD     		pop	{r3, pc}
  50              		.cfi_endproc
  51              	.LFE130:
  53              		.section	.text.WWDG_SetPrescaler,"ax",%progbits
  54              		.align	1
  55              		.global	WWDG_SetPrescaler
  56              		.syntax unified
  57              		.thumb
  58              		.thumb_func
  59              		.fpu fpv4-sp-d16
  61              	WWDG_SetPrescaler:
  62              	.LVL2:
  63              	.LFB131:
 145:Drivers/STM32F4xx_StdPeriph_Driver/src/stm32f4xx_wwdg.c **** 
 146:Drivers/STM32F4xx_StdPeriph_Driver/src/stm32f4xx_wwdg.c **** /**
 147:Drivers/STM32F4xx_StdPeriph_Driver/src/stm32f4xx_wwdg.c ****   * @brief  Sets the WWDG Prescaler.
 148:Drivers/STM32F4xx_StdPeriph_Driver/src/stm32f4xx_wwdg.c ****   * @param  WWDG_Prescaler: specifies the WWDG Prescaler.
 149:Drivers/STM32F4xx_StdPeriph_Driver/src/stm32f4xx_wwdg.c ****   *   This parameter can be one of the following values:
 150:Drivers/STM32F4xx_StdPeriph_Driver/src/stm32f4xx_wwdg.c ****   *     @arg WWDG_Prescaler_1: WWDG counter clock = (PCLK1/4096)/1
 151:Drivers/STM32F4xx_StdPeriph_Driver/src/stm32f4xx_wwdg.c ****   *     @arg WWDG_Prescaler_2: WWDG counter clock = (PCLK1/4096)/2
 152:Drivers/STM32F4xx_StdPeriph_Driver/src/stm32f4xx_wwdg.c ****   *     @arg WWDG_Prescaler_4: WWDG counter clock = (PCLK1/4096)/4
 153:Drivers/STM32F4xx_StdPeriph_Driver/src/stm32f4xx_wwdg.c ****   *     @arg WWDG_Prescaler_8: WWDG counter clock = (PCLK1/4096)/8
 154:Drivers/STM32F4xx_StdPeriph_Driver/src/stm32f4xx_wwdg.c ****   * @retval None
 155:Drivers/STM32F4xx_StdPeriph_Driver/src/stm32f4xx_wwdg.c ****   */
 156:Drivers/STM32F4xx_StdPeriph_Driver/src/stm32f4xx_wwdg.c **** void WWDG_SetPrescaler(uint32_t WWDG_Prescaler)
 157:Drivers/STM32F4xx_StdPeriph_Driver/src/stm32f4xx_wwdg.c **** {
  64              		.loc 1 157 1 is_stmt 1 view -0
  65              		.cfi_startproc
  66              		@ args = 0, pretend = 0, frame = 0
  67              		@ frame_needed = 0, uses_anonymous_args = 0
  68              		@ link register save eliminated.
 158:Drivers/STM32F4xx_StdPeriph_Driver/src/stm32f4xx_wwdg.c ****   uint32_t tmpreg = 0;
  69              		.loc 1 158 3 view .LVU5
 159:Drivers/STM32F4xx_StdPeriph_Driver/src/stm32f4xx_wwdg.c ****   /* Check the parameters */
 160:Drivers/STM32F4xx_StdPeriph_Driver/src/stm32f4xx_wwdg.c ****   assert_param(IS_WWDG_PRESCALER(WWDG_Prescaler));
  70              		.loc 1 160 3 view .LVU6
 161:Drivers/STM32F4xx_StdPeriph_Driver/src/stm32f4xx_wwdg.c ****   /* Clear WDGTB[1:0] bits */
ARM GAS  /tmp/ccQsv65w.s 			page 5


 162:Drivers/STM32F4xx_StdPeriph_Driver/src/stm32f4xx_wwdg.c ****   tmpreg = WWDG->CFR & CFR_WDGTB_MASK;
  71              		.loc 1 162 3 view .LVU7
  72              		.loc 1 162 16 is_stmt 0 view .LVU8
  73 0000 034A     		ldr	r2, .L4
  74 0002 5368     		ldr	r3, [r2, #4]
  75              		.loc 1 162 10 view .LVU9
  76 0004 23F4C073 		bic	r3, r3, #384
  77              	.LVL3:
 163:Drivers/STM32F4xx_StdPeriph_Driver/src/stm32f4xx_wwdg.c ****   /* Set WDGTB[1:0] bits according to WWDG_Prescaler value */
 164:Drivers/STM32F4xx_StdPeriph_Driver/src/stm32f4xx_wwdg.c ****   tmpreg |= WWDG_Prescaler;
  78              		.loc 1 164 3 is_stmt 1 view .LVU10
  79              		.loc 1 164 10 is_stmt 0 view .LVU11
  80 0008 0343     		orrs	r3, r3, r0
  81              	.LVL4:
 165:Drivers/STM32F4xx_StdPeriph_Driver/src/stm32f4xx_wwdg.c ****   /* Store the new value */
 166:Drivers/STM32F4xx_StdPeriph_Driver/src/stm32f4xx_wwdg.c ****   WWDG->CFR = tmpreg;
  82              		.loc 1 166 3 is_stmt 1 view .LVU12
  83              		.loc 1 166 13 is_stmt 0 view .LVU13
  84 000a 5360     		str	r3, [r2, #4]
 167:Drivers/STM32F4xx_StdPeriph_Driver/src/stm32f4xx_wwdg.c **** }
  85              		.loc 1 167 1 view .LVU14
  86 000c 7047     		bx	lr
  87              	.L5:
  88 000e 00BF     		.align	2
  89              	.L4:
  90 0010 002C0040 		.word	1073753088
  91              		.cfi_endproc
  92              	.LFE131:
  94              		.section	.text.WWDG_SetWindowValue,"ax",%progbits
  95              		.align	1
  96              		.global	WWDG_SetWindowValue
  97              		.syntax unified
  98              		.thumb
  99              		.thumb_func
 100              		.fpu fpv4-sp-d16
 102              	WWDG_SetWindowValue:
 103              	.LVL5:
 104              	.LFB132:
 168:Drivers/STM32F4xx_StdPeriph_Driver/src/stm32f4xx_wwdg.c **** 
 169:Drivers/STM32F4xx_StdPeriph_Driver/src/stm32f4xx_wwdg.c **** /**
 170:Drivers/STM32F4xx_StdPeriph_Driver/src/stm32f4xx_wwdg.c ****   * @brief  Sets the WWDG window value.
 171:Drivers/STM32F4xx_StdPeriph_Driver/src/stm32f4xx_wwdg.c ****   * @param  WindowValue: specifies the window value to be compared to the downcounter.
 172:Drivers/STM32F4xx_StdPeriph_Driver/src/stm32f4xx_wwdg.c ****   *   This parameter value must be lower than 0x80.
 173:Drivers/STM32F4xx_StdPeriph_Driver/src/stm32f4xx_wwdg.c ****   * @retval None
 174:Drivers/STM32F4xx_StdPeriph_Driver/src/stm32f4xx_wwdg.c ****   */
 175:Drivers/STM32F4xx_StdPeriph_Driver/src/stm32f4xx_wwdg.c **** void WWDG_SetWindowValue(uint8_t WindowValue)
 176:Drivers/STM32F4xx_StdPeriph_Driver/src/stm32f4xx_wwdg.c **** {
 105              		.loc 1 176 1 is_stmt 1 view -0
 106              		.cfi_startproc
 107              		@ args = 0, pretend = 0, frame = 8
 108              		@ frame_needed = 0, uses_anonymous_args = 0
 109              		@ link register save eliminated.
 110              		.loc 1 176 1 is_stmt 0 view .LVU16
 111 0000 82B0     		sub	sp, sp, #8
 112              	.LCFI1:
 113              		.cfi_def_cfa_offset 8
 177:Drivers/STM32F4xx_StdPeriph_Driver/src/stm32f4xx_wwdg.c ****   __IO uint32_t tmpreg = 0;
ARM GAS  /tmp/ccQsv65w.s 			page 6


 114              		.loc 1 177 3 is_stmt 1 view .LVU17
 115              		.loc 1 177 17 is_stmt 0 view .LVU18
 116 0002 0023     		movs	r3, #0
 117 0004 0193     		str	r3, [sp, #4]
 178:Drivers/STM32F4xx_StdPeriph_Driver/src/stm32f4xx_wwdg.c **** 
 179:Drivers/STM32F4xx_StdPeriph_Driver/src/stm32f4xx_wwdg.c ****   /* Check the parameters */
 180:Drivers/STM32F4xx_StdPeriph_Driver/src/stm32f4xx_wwdg.c ****   assert_param(IS_WWDG_WINDOW_VALUE(WindowValue));
 118              		.loc 1 180 3 is_stmt 1 view .LVU19
 181:Drivers/STM32F4xx_StdPeriph_Driver/src/stm32f4xx_wwdg.c ****   /* Clear W[6:0] bits */
 182:Drivers/STM32F4xx_StdPeriph_Driver/src/stm32f4xx_wwdg.c **** 
 183:Drivers/STM32F4xx_StdPeriph_Driver/src/stm32f4xx_wwdg.c ****   tmpreg = WWDG->CFR & CFR_W_MASK;
 119              		.loc 1 183 3 view .LVU20
 120              		.loc 1 183 16 is_stmt 0 view .LVU21
 121 0006 074A     		ldr	r2, .L8
 122 0008 5368     		ldr	r3, [r2, #4]
 123              		.loc 1 183 22 view .LVU22
 124 000a 23F07F03 		bic	r3, r3, #127
 125              		.loc 1 183 10 view .LVU23
 126 000e 0193     		str	r3, [sp, #4]
 184:Drivers/STM32F4xx_StdPeriph_Driver/src/stm32f4xx_wwdg.c **** 
 185:Drivers/STM32F4xx_StdPeriph_Driver/src/stm32f4xx_wwdg.c ****   /* Set W[6:0] bits according to WindowValue value */
 186:Drivers/STM32F4xx_StdPeriph_Driver/src/stm32f4xx_wwdg.c ****   tmpreg |= WindowValue & (uint32_t) BIT_MASK;
 127              		.loc 1 186 3 is_stmt 1 view .LVU24
 128              		.loc 1 186 25 is_stmt 0 view .LVU25
 129 0010 00F07F00 		and	r0, r0, #127
 130              	.LVL6:
 131              		.loc 1 186 10 view .LVU26
 132 0014 019B     		ldr	r3, [sp, #4]
 133 0016 1843     		orrs	r0, r0, r3
 134 0018 0190     		str	r0, [sp, #4]
 187:Drivers/STM32F4xx_StdPeriph_Driver/src/stm32f4xx_wwdg.c **** 
 188:Drivers/STM32F4xx_StdPeriph_Driver/src/stm32f4xx_wwdg.c ****   /* Store the new value */
 189:Drivers/STM32F4xx_StdPeriph_Driver/src/stm32f4xx_wwdg.c ****   WWDG->CFR = tmpreg;
 135              		.loc 1 189 3 is_stmt 1 view .LVU27
 136              		.loc 1 189 13 is_stmt 0 view .LVU28
 137 001a 019B     		ldr	r3, [sp, #4]
 138 001c 5360     		str	r3, [r2, #4]
 190:Drivers/STM32F4xx_StdPeriph_Driver/src/stm32f4xx_wwdg.c **** }
 139              		.loc 1 190 1 view .LVU29
 140 001e 02B0     		add	sp, sp, #8
 141              	.LCFI2:
 142              		.cfi_def_cfa_offset 0
 143              		@ sp needed
 144 0020 7047     		bx	lr
 145              	.L9:
 146 0022 00BF     		.align	2
 147              	.L8:
 148 0024 002C0040 		.word	1073753088
 149              		.cfi_endproc
 150              	.LFE132:
 152              		.section	.text.WWDG_EnableIT,"ax",%progbits
 153              		.align	1
 154              		.global	WWDG_EnableIT
 155              		.syntax unified
 156              		.thumb
 157              		.thumb_func
 158              		.fpu fpv4-sp-d16
ARM GAS  /tmp/ccQsv65w.s 			page 7


 160              	WWDG_EnableIT:
 161              	.LFB133:
 191:Drivers/STM32F4xx_StdPeriph_Driver/src/stm32f4xx_wwdg.c **** 
 192:Drivers/STM32F4xx_StdPeriph_Driver/src/stm32f4xx_wwdg.c **** /**
 193:Drivers/STM32F4xx_StdPeriph_Driver/src/stm32f4xx_wwdg.c ****   * @brief  Enables the WWDG Early Wakeup interrupt(EWI).
 194:Drivers/STM32F4xx_StdPeriph_Driver/src/stm32f4xx_wwdg.c ****   * @note   Once enabled this interrupt cannot be disabled except by a system reset.
 195:Drivers/STM32F4xx_StdPeriph_Driver/src/stm32f4xx_wwdg.c ****   * @param  None
 196:Drivers/STM32F4xx_StdPeriph_Driver/src/stm32f4xx_wwdg.c ****   * @retval None
 197:Drivers/STM32F4xx_StdPeriph_Driver/src/stm32f4xx_wwdg.c ****   */
 198:Drivers/STM32F4xx_StdPeriph_Driver/src/stm32f4xx_wwdg.c **** void WWDG_EnableIT(void)
 199:Drivers/STM32F4xx_StdPeriph_Driver/src/stm32f4xx_wwdg.c **** {
 162              		.loc 1 199 1 is_stmt 1 view -0
 163              		.cfi_startproc
 164              		@ args = 0, pretend = 0, frame = 0
 165              		@ frame_needed = 0, uses_anonymous_args = 0
 166              		@ link register save eliminated.
 200:Drivers/STM32F4xx_StdPeriph_Driver/src/stm32f4xx_wwdg.c ****   *(__IO uint32_t *) CFR_EWI_BB = (uint32_t)ENABLE;
 167              		.loc 1 200 3 view .LVU31
 168              		.loc 1 200 33 is_stmt 0 view .LVU32
 169 0000 014B     		ldr	r3, .L11
 170 0002 0122     		movs	r2, #1
 171 0004 1A60     		str	r2, [r3]
 201:Drivers/STM32F4xx_StdPeriph_Driver/src/stm32f4xx_wwdg.c **** }
 172              		.loc 1 201 1 view .LVU33
 173 0006 7047     		bx	lr
 174              	.L12:
 175              		.align	2
 176              	.L11:
 177 0008 A4800542 		.word	1107656868
 178              		.cfi_endproc
 179              	.LFE133:
 181              		.section	.text.WWDG_SetCounter,"ax",%progbits
 182              		.align	1
 183              		.global	WWDG_SetCounter
 184              		.syntax unified
 185              		.thumb
 186              		.thumb_func
 187              		.fpu fpv4-sp-d16
 189              	WWDG_SetCounter:
 190              	.LVL7:
 191              	.LFB134:
 202:Drivers/STM32F4xx_StdPeriph_Driver/src/stm32f4xx_wwdg.c **** 
 203:Drivers/STM32F4xx_StdPeriph_Driver/src/stm32f4xx_wwdg.c **** /**
 204:Drivers/STM32F4xx_StdPeriph_Driver/src/stm32f4xx_wwdg.c ****   * @brief  Sets the WWDG counter value.
 205:Drivers/STM32F4xx_StdPeriph_Driver/src/stm32f4xx_wwdg.c ****   * @param  Counter: specifies the watchdog counter value.
 206:Drivers/STM32F4xx_StdPeriph_Driver/src/stm32f4xx_wwdg.c ****   *   This parameter must be a number between 0x40 and 0x7F (to prevent generating
 207:Drivers/STM32F4xx_StdPeriph_Driver/src/stm32f4xx_wwdg.c ****   *   an immediate reset) 
 208:Drivers/STM32F4xx_StdPeriph_Driver/src/stm32f4xx_wwdg.c ****   * @retval None
 209:Drivers/STM32F4xx_StdPeriph_Driver/src/stm32f4xx_wwdg.c ****   */
 210:Drivers/STM32F4xx_StdPeriph_Driver/src/stm32f4xx_wwdg.c **** void WWDG_SetCounter(uint8_t Counter)
 211:Drivers/STM32F4xx_StdPeriph_Driver/src/stm32f4xx_wwdg.c **** {
 192              		.loc 1 211 1 is_stmt 1 view -0
 193              		.cfi_startproc
 194              		@ args = 0, pretend = 0, frame = 0
 195              		@ frame_needed = 0, uses_anonymous_args = 0
 196              		@ link register save eliminated.
 212:Drivers/STM32F4xx_StdPeriph_Driver/src/stm32f4xx_wwdg.c ****   /* Check the parameters */
ARM GAS  /tmp/ccQsv65w.s 			page 8


 213:Drivers/STM32F4xx_StdPeriph_Driver/src/stm32f4xx_wwdg.c ****   assert_param(IS_WWDG_COUNTER(Counter));
 197              		.loc 1 213 3 view .LVU35
 214:Drivers/STM32F4xx_StdPeriph_Driver/src/stm32f4xx_wwdg.c ****   /* Write to T[6:0] bits to configure the counter value, no need to do
 215:Drivers/STM32F4xx_StdPeriph_Driver/src/stm32f4xx_wwdg.c ****      a read-modify-write; writing a 0 to WDGA bit does nothing */
 216:Drivers/STM32F4xx_StdPeriph_Driver/src/stm32f4xx_wwdg.c ****   WWDG->CR = Counter & BIT_MASK;
 198              		.loc 1 216 3 view .LVU36
 199              		.loc 1 216 22 is_stmt 0 view .LVU37
 200 0000 00F07F00 		and	r0, r0, #127
 201              	.LVL8:
 202              		.loc 1 216 12 view .LVU38
 203 0004 014B     		ldr	r3, .L14
 204 0006 1860     		str	r0, [r3]
 217:Drivers/STM32F4xx_StdPeriph_Driver/src/stm32f4xx_wwdg.c **** }
 205              		.loc 1 217 1 view .LVU39
 206 0008 7047     		bx	lr
 207              	.L15:
 208 000a 00BF     		.align	2
 209              	.L14:
 210 000c 002C0040 		.word	1073753088
 211              		.cfi_endproc
 212              	.LFE134:
 214              		.section	.text.WWDG_Enable,"ax",%progbits
 215              		.align	1
 216              		.global	WWDG_Enable
 217              		.syntax unified
 218              		.thumb
 219              		.thumb_func
 220              		.fpu fpv4-sp-d16
 222              	WWDG_Enable:
 223              	.LVL9:
 224              	.LFB135:
 218:Drivers/STM32F4xx_StdPeriph_Driver/src/stm32f4xx_wwdg.c **** /**
 219:Drivers/STM32F4xx_StdPeriph_Driver/src/stm32f4xx_wwdg.c ****   * @}
 220:Drivers/STM32F4xx_StdPeriph_Driver/src/stm32f4xx_wwdg.c ****   */
 221:Drivers/STM32F4xx_StdPeriph_Driver/src/stm32f4xx_wwdg.c **** 
 222:Drivers/STM32F4xx_StdPeriph_Driver/src/stm32f4xx_wwdg.c **** /** @defgroup WWDG_Group2 WWDG activation functions
 223:Drivers/STM32F4xx_StdPeriph_Driver/src/stm32f4xx_wwdg.c ****  *  @brief   WWDG activation functions 
 224:Drivers/STM32F4xx_StdPeriph_Driver/src/stm32f4xx_wwdg.c ****  *
 225:Drivers/STM32F4xx_StdPeriph_Driver/src/stm32f4xx_wwdg.c **** @verbatim   
 226:Drivers/STM32F4xx_StdPeriph_Driver/src/stm32f4xx_wwdg.c ****  ===============================================================================
 227:Drivers/STM32F4xx_StdPeriph_Driver/src/stm32f4xx_wwdg.c ****                        WWDG activation function
 228:Drivers/STM32F4xx_StdPeriph_Driver/src/stm32f4xx_wwdg.c ****  ===============================================================================  
 229:Drivers/STM32F4xx_StdPeriph_Driver/src/stm32f4xx_wwdg.c **** 
 230:Drivers/STM32F4xx_StdPeriph_Driver/src/stm32f4xx_wwdg.c **** @endverbatim
 231:Drivers/STM32F4xx_StdPeriph_Driver/src/stm32f4xx_wwdg.c ****   * @{
 232:Drivers/STM32F4xx_StdPeriph_Driver/src/stm32f4xx_wwdg.c ****   */
 233:Drivers/STM32F4xx_StdPeriph_Driver/src/stm32f4xx_wwdg.c **** 
 234:Drivers/STM32F4xx_StdPeriph_Driver/src/stm32f4xx_wwdg.c **** /**
 235:Drivers/STM32F4xx_StdPeriph_Driver/src/stm32f4xx_wwdg.c ****   * @brief  Enables WWDG and load the counter value.                  
 236:Drivers/STM32F4xx_StdPeriph_Driver/src/stm32f4xx_wwdg.c ****   * @param  Counter: specifies the watchdog counter value.
 237:Drivers/STM32F4xx_StdPeriph_Driver/src/stm32f4xx_wwdg.c ****   *   This parameter must be a number between 0x40 and 0x7F (to prevent generating
 238:Drivers/STM32F4xx_StdPeriph_Driver/src/stm32f4xx_wwdg.c ****   *   an immediate reset)
 239:Drivers/STM32F4xx_StdPeriph_Driver/src/stm32f4xx_wwdg.c ****   * @retval None
 240:Drivers/STM32F4xx_StdPeriph_Driver/src/stm32f4xx_wwdg.c ****   */
 241:Drivers/STM32F4xx_StdPeriph_Driver/src/stm32f4xx_wwdg.c **** void WWDG_Enable(uint8_t Counter)
 242:Drivers/STM32F4xx_StdPeriph_Driver/src/stm32f4xx_wwdg.c **** {
 225              		.loc 1 242 1 is_stmt 1 view -0
ARM GAS  /tmp/ccQsv65w.s 			page 9


 226              		.cfi_startproc
 227              		@ args = 0, pretend = 0, frame = 0
 228              		@ frame_needed = 0, uses_anonymous_args = 0
 229              		@ link register save eliminated.
 243:Drivers/STM32F4xx_StdPeriph_Driver/src/stm32f4xx_wwdg.c ****   /* Check the parameters */
 244:Drivers/STM32F4xx_StdPeriph_Driver/src/stm32f4xx_wwdg.c ****   assert_param(IS_WWDG_COUNTER(Counter));
 230              		.loc 1 244 3 view .LVU41
 245:Drivers/STM32F4xx_StdPeriph_Driver/src/stm32f4xx_wwdg.c ****   WWDG->CR = WWDG_CR_WDGA | Counter;
 231              		.loc 1 245 3 view .LVU42
 232              		.loc 1 245 27 is_stmt 0 view .LVU43
 233 0000 40F08000 		orr	r0, r0, #128
 234              	.LVL10:
 235              		.loc 1 245 12 view .LVU44
 236 0004 014B     		ldr	r3, .L17
 237 0006 1860     		str	r0, [r3]
 246:Drivers/STM32F4xx_StdPeriph_Driver/src/stm32f4xx_wwdg.c **** }
 238              		.loc 1 246 1 view .LVU45
 239 0008 7047     		bx	lr
 240              	.L18:
 241 000a 00BF     		.align	2
 242              	.L17:
 243 000c 002C0040 		.word	1073753088
 244              		.cfi_endproc
 245              	.LFE135:
 247              		.section	.text.WWDG_GetFlagStatus,"ax",%progbits
 248              		.align	1
 249              		.global	WWDG_GetFlagStatus
 250              		.syntax unified
 251              		.thumb
 252              		.thumb_func
 253              		.fpu fpv4-sp-d16
 255              	WWDG_GetFlagStatus:
 256              	.LFB136:
 247:Drivers/STM32F4xx_StdPeriph_Driver/src/stm32f4xx_wwdg.c **** /**
 248:Drivers/STM32F4xx_StdPeriph_Driver/src/stm32f4xx_wwdg.c ****   * @}
 249:Drivers/STM32F4xx_StdPeriph_Driver/src/stm32f4xx_wwdg.c ****   */
 250:Drivers/STM32F4xx_StdPeriph_Driver/src/stm32f4xx_wwdg.c **** 
 251:Drivers/STM32F4xx_StdPeriph_Driver/src/stm32f4xx_wwdg.c **** /** @defgroup WWDG_Group3 Interrupts and flags management functions
 252:Drivers/STM32F4xx_StdPeriph_Driver/src/stm32f4xx_wwdg.c ****  *  @brief   Interrupts and flags management functions 
 253:Drivers/STM32F4xx_StdPeriph_Driver/src/stm32f4xx_wwdg.c ****  *
 254:Drivers/STM32F4xx_StdPeriph_Driver/src/stm32f4xx_wwdg.c **** @verbatim   
 255:Drivers/STM32F4xx_StdPeriph_Driver/src/stm32f4xx_wwdg.c ****  ===============================================================================
 256:Drivers/STM32F4xx_StdPeriph_Driver/src/stm32f4xx_wwdg.c ****                  Interrupts and flags management functions
 257:Drivers/STM32F4xx_StdPeriph_Driver/src/stm32f4xx_wwdg.c ****  ===============================================================================  
 258:Drivers/STM32F4xx_StdPeriph_Driver/src/stm32f4xx_wwdg.c **** 
 259:Drivers/STM32F4xx_StdPeriph_Driver/src/stm32f4xx_wwdg.c **** @endverbatim
 260:Drivers/STM32F4xx_StdPeriph_Driver/src/stm32f4xx_wwdg.c ****   * @{
 261:Drivers/STM32F4xx_StdPeriph_Driver/src/stm32f4xx_wwdg.c ****   */
 262:Drivers/STM32F4xx_StdPeriph_Driver/src/stm32f4xx_wwdg.c **** 
 263:Drivers/STM32F4xx_StdPeriph_Driver/src/stm32f4xx_wwdg.c **** /**
 264:Drivers/STM32F4xx_StdPeriph_Driver/src/stm32f4xx_wwdg.c ****   * @brief  Checks whether the Early Wakeup interrupt flag is set or not.
 265:Drivers/STM32F4xx_StdPeriph_Driver/src/stm32f4xx_wwdg.c ****   * @param  None
 266:Drivers/STM32F4xx_StdPeriph_Driver/src/stm32f4xx_wwdg.c ****   * @retval The new state of the Early Wakeup interrupt flag (SET or RESET)
 267:Drivers/STM32F4xx_StdPeriph_Driver/src/stm32f4xx_wwdg.c ****   */
 268:Drivers/STM32F4xx_StdPeriph_Driver/src/stm32f4xx_wwdg.c **** FlagStatus WWDG_GetFlagStatus(void)
 269:Drivers/STM32F4xx_StdPeriph_Driver/src/stm32f4xx_wwdg.c **** {
 257              		.loc 1 269 1 is_stmt 1 view -0
ARM GAS  /tmp/ccQsv65w.s 			page 10


 258              		.cfi_startproc
 259              		@ args = 0, pretend = 0, frame = 0
 260              		@ frame_needed = 0, uses_anonymous_args = 0
 261              		@ link register save eliminated.
 270:Drivers/STM32F4xx_StdPeriph_Driver/src/stm32f4xx_wwdg.c ****   FlagStatus bitstatus = RESET;
 262              		.loc 1 270 3 view .LVU47
 263              	.LVL11:
 271:Drivers/STM32F4xx_StdPeriph_Driver/src/stm32f4xx_wwdg.c ****     
 272:Drivers/STM32F4xx_StdPeriph_Driver/src/stm32f4xx_wwdg.c ****   if ((WWDG->SR) != (uint32_t)RESET)
 264              		.loc 1 272 3 view .LVU48
 265              		.loc 1 272 12 is_stmt 0 view .LVU49
 266 0000 034B     		ldr	r3, .L22
 267 0002 9B68     		ldr	r3, [r3, #8]
 268              		.loc 1 272 6 view .LVU50
 269 0004 0BB1     		cbz	r3, .L21
 273:Drivers/STM32F4xx_StdPeriph_Driver/src/stm32f4xx_wwdg.c ****   {
 274:Drivers/STM32F4xx_StdPeriph_Driver/src/stm32f4xx_wwdg.c ****     bitstatus = SET;
 270              		.loc 1 274 15 view .LVU51
 271 0006 0120     		movs	r0, #1
 272 0008 7047     		bx	lr
 273              	.L21:
 275:Drivers/STM32F4xx_StdPeriph_Driver/src/stm32f4xx_wwdg.c ****   }
 276:Drivers/STM32F4xx_StdPeriph_Driver/src/stm32f4xx_wwdg.c ****   else
 277:Drivers/STM32F4xx_StdPeriph_Driver/src/stm32f4xx_wwdg.c ****   {
 278:Drivers/STM32F4xx_StdPeriph_Driver/src/stm32f4xx_wwdg.c ****     bitstatus = RESET;
 274              		.loc 1 278 15 view .LVU52
 275 000a 0020     		movs	r0, #0
 276              	.LVL12:
 279:Drivers/STM32F4xx_StdPeriph_Driver/src/stm32f4xx_wwdg.c ****   }
 280:Drivers/STM32F4xx_StdPeriph_Driver/src/stm32f4xx_wwdg.c ****   return bitstatus;
 277              		.loc 1 280 3 is_stmt 1 view .LVU53
 281:Drivers/STM32F4xx_StdPeriph_Driver/src/stm32f4xx_wwdg.c **** }
 278              		.loc 1 281 1 is_stmt 0 view .LVU54
 279 000c 7047     		bx	lr
 280              	.L23:
 281 000e 00BF     		.align	2
 282              	.L22:
 283 0010 002C0040 		.word	1073753088
 284              		.cfi_endproc
 285              	.LFE136:
 287              		.section	.text.WWDG_ClearFlag,"ax",%progbits
 288              		.align	1
 289              		.global	WWDG_ClearFlag
 290              		.syntax unified
 291              		.thumb
 292              		.thumb_func
 293              		.fpu fpv4-sp-d16
 295              	WWDG_ClearFlag:
 296              	.LFB137:
 282:Drivers/STM32F4xx_StdPeriph_Driver/src/stm32f4xx_wwdg.c **** 
 283:Drivers/STM32F4xx_StdPeriph_Driver/src/stm32f4xx_wwdg.c **** /**
 284:Drivers/STM32F4xx_StdPeriph_Driver/src/stm32f4xx_wwdg.c ****   * @brief  Clears Early Wakeup interrupt flag.
 285:Drivers/STM32F4xx_StdPeriph_Driver/src/stm32f4xx_wwdg.c ****   * @param  None
 286:Drivers/STM32F4xx_StdPeriph_Driver/src/stm32f4xx_wwdg.c ****   * @retval None
 287:Drivers/STM32F4xx_StdPeriph_Driver/src/stm32f4xx_wwdg.c ****   */
 288:Drivers/STM32F4xx_StdPeriph_Driver/src/stm32f4xx_wwdg.c **** void WWDG_ClearFlag(void)
 289:Drivers/STM32F4xx_StdPeriph_Driver/src/stm32f4xx_wwdg.c **** {
ARM GAS  /tmp/ccQsv65w.s 			page 11


 297              		.loc 1 289 1 is_stmt 1 view -0
 298              		.cfi_startproc
 299              		@ args = 0, pretend = 0, frame = 0
 300              		@ frame_needed = 0, uses_anonymous_args = 0
 301              		@ link register save eliminated.
 290:Drivers/STM32F4xx_StdPeriph_Driver/src/stm32f4xx_wwdg.c ****   WWDG->SR = (uint32_t)RESET;
 302              		.loc 1 290 3 view .LVU56
 303              		.loc 1 290 12 is_stmt 0 view .LVU57
 304 0000 014B     		ldr	r3, .L25
 305 0002 0022     		movs	r2, #0
 306 0004 9A60     		str	r2, [r3, #8]
 291:Drivers/STM32F4xx_StdPeriph_Driver/src/stm32f4xx_wwdg.c **** }
 307              		.loc 1 291 1 view .LVU58
 308 0006 7047     		bx	lr
 309              	.L26:
 310              		.align	2
 311              	.L25:
 312 0008 002C0040 		.word	1073753088
 313              		.cfi_endproc
 314              	.LFE137:
 316              		.text
 317              	.Letext0:
 318              		.file 2 "/home/way/Programs/gcc-arm-none-eabi/arm-none-eabi/include/machine/_default_types.h"
 319              		.file 3 "/home/way/Programs/gcc-arm-none-eabi/arm-none-eabi/include/sys/_stdint.h"
 320              		.file 4 "Drivers/CMSIS/Core/Include/core_cm4.h"
 321              		.file 5 "Inc/system_stm32f4xx.h"
 322              		.file 6 "Inc/stm32f4xx.h"
 323              		.file 7 "Drivers/STM32F4xx_StdPeriph_Driver/inc/stm32f4xx_rcc.h"
ARM GAS  /tmp/ccQsv65w.s 			page 12

